; ModuleID = 'llvm-link'
source_filename = "llvm-link"
target datalayout = "e-m:e-i64:64-f80:128-n8:16:32:64-S128"
target triple = "x86_64-unknown-linux-gnu"

%"class.std::basic_ofstream" = type { %"class.std::basic_ostream.base", %"class.std::basic_filebuf", %"class.std::basic_ios" }
%"class.std::basic_ostream.base" = type { i32 (...)** }
%"class.std::basic_filebuf" = type { %"class.std::basic_streambuf", %union.pthread_mutex_t, %"class.std::__basic_file", i32, %struct.__mbstate_t, %struct.__mbstate_t, %struct.__mbstate_t, i8*, i64, i8, i8, i8, i8, i8*, i8*, i8, %"class.std::codecvt"*, i8*, i64, i8*, i8* }
%"class.std::basic_streambuf" = type { i32 (...)**, i8*, i8*, i8*, i8*, i8*, i8*, %"class.std::locale" }
%"class.std::locale" = type { %"class.std::locale::_Impl"* }
%"class.std::locale::_Impl" = type { i32, %"class.std::locale::facet"**, i64, %"class.std::locale::facet"**, i8** }
%"class.std::locale::facet" = type <{ i32 (...)**, i32, [4 x i8] }>
%union.pthread_mutex_t = type { %"struct.(anonymous union)::__pthread_mutex_s" }
%"struct.(anonymous union)::__pthread_mutex_s" = type { i32, i32, i32, i32, i32, i16, i16, %struct.__pthread_internal_list }
%struct.__pthread_internal_list = type { %struct.__pthread_internal_list*, %struct.__pthread_internal_list* }
%"class.std::__basic_file" = type <{ %struct._IO_FILE*, i8, [7 x i8] }>
%struct._IO_FILE = type { i32, i8*, i8*, i8*, i8*, i8*, i8*, i8*, i8*, i8*, i8*, i8*, %struct._IO_marker*, %struct._IO_FILE*, i32, i32, i64, i16, i8, [1 x i8], i8*, i64, i8*, i8*, i8*, i8*, i64, i32, [20 x i8] }
%struct._IO_marker = type { %struct._IO_marker*, %struct._IO_FILE*, i32 }
%struct.__mbstate_t = type { i32, %union.anon }
%union.anon = type { i32 }
%"class.std::codecvt" = type { %"class.std::__codecvt_abstract_base.base", %struct.__locale_struct* }
%"class.std::__codecvt_abstract_base.base" = type { %"class.std::locale::facet.base" }
%"class.std::locale::facet.base" = type <{ i32 (...)**, i32 }>
%struct.__locale_struct = type { [13 x %struct.__locale_data*], i16*, i32*, i32*, [13 x i8*] }
%struct.__locale_data = type opaque
%"class.std::basic_ios" = type { %"class.std::ios_base", %"class.std::basic_ostream"*, i8, i8, %"class.std::basic_streambuf"*, %"class.std::ctype"*, %"class.std::num_put"*, %"class.std::num_put"* }
%"class.std::ios_base" = type { i32 (...)**, i64, i64, i32, i32, i32, %"struct.std::ios_base::_Callback_list"*, %"struct.std::ios_base::_Words", [8 x %"struct.std::ios_base::_Words"], i32, %"struct.std::ios_base::_Words"*, %"class.std::locale" }
%"struct.std::ios_base::_Callback_list" = type { %"struct.std::ios_base::_Callback_list"*, void (i32, %"class.std::ios_base"*, i32)*, i32, i32 }
%"struct.std::ios_base::_Words" = type { i8*, i64 }
%"class.std::basic_ostream" = type { i32 (...)**, %"class.std::basic_ios" }
%"class.std::ctype" = type <{ %"class.std::locale::facet.base", [4 x i8], %struct.__locale_struct*, i8, [7 x i8], i32*, i32*, i16*, i8, [256 x i8], [256 x i8], i8, [6 x i8] }>
%"class.std::num_put" = type { %"class.std::locale::facet.base", [4 x i8] }
%"class.std::ios_base::Init" = type { i8 }
%struct.ident_t = type { i32, i32, i32, i32, i8* }
%"class.std::basic_string" = type { %"struct.std::basic_string<char, std::char_traits<char>, std::allocator<char> >::_Alloc_hider" }
%"struct.std::basic_string<char, std::char_traits<char>, std::allocator<char> >::_Alloc_hider" = type { i8* }
%"class.std::basic_ostringstream" = type { %"class.std::basic_ostream.base", %"class.std::basic_stringbuf", %"class.std::basic_ios" }
%"class.std::basic_stringbuf" = type { %"class.std::basic_streambuf", i32, %"class.std::basic_string" }
%"struct.std::basic_string<char, std::char_traits<char>, std::allocator<char> >::_Rep" = type { %"struct.std::basic_string<char, std::char_traits<char>, std::allocator<char> >::_Rep_base" }
%"struct.std::basic_string<char, std::char_traits<char>, std::allocator<char> >::_Rep_base" = type { i64, i64, i32 }
%struct.__va_list_tag = type { i32, i32, i8*, i8* }
%struct.pb_Parameters = type { i8*, i8** }
%struct.pb_Timer = type { i32, i64, i64 }
%struct.timeval = type { i64, i64 }
%struct.timezone = type { i32, i32 }
%struct.pb_TimerSet = type { i32, %struct.pb_async_time_marker_list*, i64, i64, [8 x %struct.pb_Timer], [8 x %struct.pb_SubTimerList*] }
%struct.pb_async_time_marker_list = type { i8*, i32, i8*, %struct.pb_async_time_marker_list* }
%struct.pb_SubTimerList = type { %struct.pb_SubTimer*, %struct.pb_SubTimer* }
%struct.pb_SubTimer = type { i8*, %struct.pb_Timer, %struct.pb_SubTimer* }

@f1 = dso_local global [1024 x %"class.std::basic_ofstream"] zeroinitializer, align 16
@f2 = dso_local global [1024 x %"class.std::basic_ofstream"] zeroinitializer, align 16
@f3 = dso_local global [1024 x %"class.std::basic_ofstream"] zeroinitializer, align 16
@expert_mode = dso_local local_unnamed_addr global i8 0, align 1
@remaining_mem_accesses = dso_local local_unnamed_addr global i64 130000000, align 8
@llvm.global_ctors = appending global [2 x { i32, void ()*, i8* }] [{ i32, void ()*, i8* } { i32 65535, void ()* @_GLOBAL__sub_I_tracer.cc, i8* null }, { i32, void ()*, i8* } { i32 65535, void ()* @_GLOBAL__sub_I_main_visited.cpp, i8* null }]
@_ZStL8__ioinit = internal global %"class.std::ios_base::Init" zeroinitializer, align 1
@__dso_handle = external hidden global i8
@.str.18 = private unnamed_addr constant [14 x i8] c"PYTHIA_EXPERT\00", align 1
@_ZSt4cout = external dso_local global %"class.std::basic_ostream", align 8
@.str = private unnamed_addr constant [72 x i8] c"ERROR: Unable to log for all threads! Increase MAX_THREADS in tracer.cc\00", align 1
@.str.1 = private unnamed_addr constant [2 x i8] c"\0A\00", align 1
@.str.2 = private unnamed_addr constant [2 x i8] c"0\00", align 1
@.str.3 = private unnamed_addr constant [10 x i8] c"tracer.cc\00", align 1
@__PRETTY_FUNCTION__._Z12get_dir_nameSsSsSs = private unnamed_addr constant [64 x i8] c"const char *get_dir_name(std::string, std::string, std::string)\00", align 1
@.str.4 = private unnamed_addr constant [9 x i8] c"/output_\00", align 1
@.str.5 = private unnamed_addr constant [2 x i8] c"_\00", align 1
@.str.6 = private unnamed_addr constant [2 x i8] c"/\00", align 1
@_ZNSs4_Rep20_S_empty_rep_storageE = external dso_local global [0 x i64], align 8
@_ZTTSt19basic_ostringstreamIcSt11char_traitsIcESaIcEE = external unnamed_addr constant [4 x i8*], align 8
@_ZTVSt15basic_stringbufIcSt11char_traitsIcESaIcEE = external dso_local unnamed_addr constant { [16 x i8*] }, align 8
@_ZTVSt15basic_streambufIcSt11char_traitsIcEE = external dso_local unnamed_addr constant { [16 x i8*] }, align 8
@.str.7 = private unnamed_addr constant [9 x i8] c"ctrl.txt\00", align 1
@.str.8 = private unnamed_addr constant [3 x i8] c"B,\00", align 1
@.str.9 = private unnamed_addr constant [2 x i8] c",\00", align 1
@.str.10 = private unnamed_addr constant [6 x i8] c"false\00", align 1
@__PRETTY_FUNCTION__.printuBranch = private unnamed_addr constant [50 x i8] c"void printuBranch(char *, char *, char *, char *)\00", align 1
@.str.11 = private unnamed_addr constant [3 x i8] c"U,\00", align 1
@.str.12 = private unnamed_addr constant [66 x i8] c"Memory trace exceeded max num of memory accesses. \0A Aborting... \0A\00", align 1
@__PRETTY_FUNCTION__.printMem = private unnamed_addr constant [60 x i8] c"void printMem(char *, char *, char *, bool, long long, int)\00", align 1
@.str.13 = private unnamed_addr constant [8 x i8] c"mem.txt\00", align 1
@.str.14 = private unnamed_addr constant [3 x i8] c"L,\00", align 1
@.str.15 = private unnamed_addr constant [3 x i8] c"S,\00", align 1
@.str.16 = private unnamed_addr constant [8 x i8] c"acc.txt\00", align 1
@.str.26 = private unnamed_addr constant [74 x i8] c"vector::_M_range_check: __n (which is %zu) >= this->size() (which is %zu)\00", align 1
@no_of_nodes = dso_local global i32 0, align 4
@edge_list_size = dso_local global i32 0, align 4
@fp = dso_local local_unnamed_addr global %struct._IO_FILE* null, align 8
@_ZStL8__ioinit.2 = internal global %"class.std::ios_base::Init" zeroinitializer, align 1
@stderr = external dso_local local_unnamed_addr global %struct._IO_FILE*, align 8
@.str.23 = private unnamed_addr constant [17 x i8] c"delete_argument\0A\00", align 1
@.str.24 = private unnamed_addr constant [15 x i8] c"next_argument\0A\00", align 1
@.str.1.3 = private unnamed_addr constant [32 x i8] c"Expecting file name after '-i'\0A\00", align 1
@.str.17 = private unnamed_addr constant [32 x i8] c"Expecting file name after '-o'\0A\00", align 1
@.str.2.18 = private unnamed_addr constant [35 x i8] c"Unexpected command-line parameter\0A\00", align 1
@.str.3.19 = private unnamed_addr constant [43 x i8] c"Ignoring attempt to start a running timer\0A\00", align 1
@.str.4.20 = private unnamed_addr constant [32 x i8] c"Warning: Timer was not stopped\0A\00", align 1
@.str.5.21 = private unnamed_addr constant [35 x i8] c"Warning: Subtimer was not stopped\0A\00", align 1
@.str.6.22 = private unnamed_addr constant [54 x i8] c"Ignoring attempt to start running timer and subtimer\0A\00", align 1
@.str.7.23 = private unnamed_addr constant [42 x i8] c"Ignoring attempt to stop a stopped timer\0A\00", align 1
@.str.8.24 = private unnamed_addr constant [32 x i8] c"Warning: Timer was not running\0A\00", align 1
@.str.9.25 = private unnamed_addr constant [35 x i8] c"Warning: Subtimer was not running\0A\00", align 1
@.str.10.26 = private unnamed_addr constant [53 x i8] c"Ignoring attempt to stop stopped timer and subtimer\0A\00", align 1
@.str.11.27 = private unnamed_addr constant [49 x i8] c"Elapsed time from a running timer is inaccurate\0A\00", align 1
@.str.13.28 = private unnamed_addr constant [3 x i8] c"IO\00", align 1
@.str.14.29 = private unnamed_addr constant [7 x i8] c"Kernel\00", align 1
@.str.15.30 = private unnamed_addr constant [5 x i8] c"Copy\00", align 1
@.str.16.31 = private unnamed_addr constant [7 x i8] c"Driver\00", align 1
@.str.17.32 = private unnamed_addr constant [11 x i8] c"Copy Async\00", align 1
@.str.18.33 = private unnamed_addr constant [8 x i8] c"Compute\00", align 1
@.str.19 = private unnamed_addr constant [10 x i8] c"%-*s: %f\0A\00", align 1
@.str.20 = private unnamed_addr constant [12 x i8] c" -%-*s: %f\0A\00", align 1
@.str.21 = private unnamed_addr constant [24 x i8] c"CPU/Kernel Overlap: %f\0A\00", align 1
@.str.22 = private unnamed_addr constant [21 x i8] c"Timer Wall Time: %f\0A\00", align 1
@0 = private unnamed_addr global %struct.ident_t { i32 0, i32 2, i32 0, i32 0, i8* getelementptr inbounds ([23 x i8], [23 x i8]* @.str.12.34, i32 0, i32 0) }, align 8
@1 = private unnamed_addr global %struct.ident_t { i32 0, i32 34, i32 0, i32 0, i8* getelementptr inbounds ([23 x i8], [23 x i8]* @.str.12.34, i32 0, i32 0) }, align 8
@.str.12.34 = private unnamed_addr constant [23 x i8] c";unknown;unknown;0;0;;\00", align 1
@2 = private unnamed_addr constant [2 x i8] c"0\00", align 1
@3 = private unnamed_addr constant [8 x i8] c"compute\00", align 1
@4 = private unnamed_addr constant [13 x i8] c"decades_base\00", align 1
@5 = private unnamed_addr constant [2 x i8] c"1\00", align 1
@6 = private unnamed_addr constant [3 x i8] c"16\00", align 1
@7 = private unnamed_addr constant [8 x i8] c"compute\00", align 1
@8 = private unnamed_addr constant [13 x i8] c"decades_base\00", align 1
@9 = private unnamed_addr constant [2 x i8] c"1\00", align 1
@10 = private unnamed_addr constant [8 x i8] c"compute\00", align 1
@11 = private unnamed_addr constant [13 x i8] c"decades_base\00", align 1
@12 = private unnamed_addr constant [2 x i8] c"2\00", align 1
@13 = private unnamed_addr constant [2 x i8] c"1\00", align 1
@14 = private unnamed_addr constant [3 x i8] c"20\00", align 1
@15 = private unnamed_addr constant [8 x i8] c"compute\00", align 1
@16 = private unnamed_addr constant [13 x i8] c"decades_base\00", align 1
@17 = private unnamed_addr constant [3 x i8] c"24\00", align 1
@18 = private unnamed_addr constant [8 x i8] c"compute\00", align 1
@19 = private unnamed_addr constant [13 x i8] c"decades_base\00", align 1
@20 = private unnamed_addr constant [2 x i8] c"2\00", align 1
@21 = private unnamed_addr constant [8 x i8] c"compute\00", align 1
@22 = private unnamed_addr constant [13 x i8] c"decades_base\00", align 1
@23 = private unnamed_addr constant [2 x i8] c"3\00", align 1
@24 = private unnamed_addr constant [2 x i8] c"4\00", align 1
@25 = private unnamed_addr constant [3 x i8] c"32\00", align 1
@26 = private unnamed_addr constant [8 x i8] c"compute\00", align 1
@27 = private unnamed_addr constant [13 x i8] c"decades_base\00", align 1
@28 = private unnamed_addr constant [2 x i8] c"3\00", align 1
@29 = private unnamed_addr constant [8 x i8] c"compute\00", align 1
@30 = private unnamed_addr constant [13 x i8] c"decades_base\00", align 1
@31 = private unnamed_addr constant [3 x i8] c"21\00", align 1
@32 = private unnamed_addr constant [2 x i8] c"4\00", align 1
@33 = private unnamed_addr constant [8 x i8] c"compute\00", align 1
@34 = private unnamed_addr constant [13 x i8] c"decades_base\00", align 1
@35 = private unnamed_addr constant [3 x i8] c"19\00", align 1
@36 = private unnamed_addr constant [2 x i8] c"5\00", align 1
@37 = private unnamed_addr constant [2 x i8] c"5\00", align 1
@38 = private unnamed_addr constant [8 x i8] c"compute\00", align 1
@39 = private unnamed_addr constant [13 x i8] c"decades_base\00", align 1
@40 = private unnamed_addr constant [3 x i8] c"11\00", align 1
@41 = private unnamed_addr constant [2 x i8] c"6\00", align 1
@42 = private unnamed_addr constant [2 x i8] c"6\00", align 1
@43 = private unnamed_addr constant [8 x i8] c"compute\00", align 1
@44 = private unnamed_addr constant [13 x i8] c"decades_base\00", align 1
@45 = private unnamed_addr constant [2 x i8] c"9\00", align 1
@46 = private unnamed_addr constant [2 x i8] c"7\00", align 1
@47 = private unnamed_addr constant [2 x i8] c"7\00", align 1
@48 = private unnamed_addr constant [8 x i8] c"compute\00", align 1
@49 = private unnamed_addr constant [13 x i8] c"decades_base\00", align 1
@50 = private unnamed_addr constant [2 x i8] c"8\00", align 1
@51 = private unnamed_addr constant [3 x i8] c"18\00", align 1
@52 = private unnamed_addr constant [2 x i8] c"8\00", align 1
@53 = private unnamed_addr constant [8 x i8] c"compute\00", align 1
@54 = private unnamed_addr constant [13 x i8] c"decades_base\00", align 1
@55 = private unnamed_addr constant [3 x i8] c"18\00", align 1
@56 = private unnamed_addr constant [2 x i8] c"9\00", align 1
@57 = private unnamed_addr constant [8 x i8] c"compute\00", align 1
@58 = private unnamed_addr constant [13 x i8] c"decades_base\00", align 1
@59 = private unnamed_addr constant [3 x i8] c"10\00", align 1
@60 = private unnamed_addr constant [3 x i8] c"18\00", align 1
@61 = private unnamed_addr constant [3 x i8] c"10\00", align 1
@62 = private unnamed_addr constant [8 x i8] c"compute\00", align 1
@63 = private unnamed_addr constant [13 x i8] c"decades_base\00", align 1
@64 = private unnamed_addr constant [3 x i8] c"18\00", align 1
@65 = private unnamed_addr constant [3 x i8] c"11\00", align 1
@66 = private unnamed_addr constant [8 x i8] c"compute\00", align 1
@67 = private unnamed_addr constant [13 x i8] c"decades_base\00", align 1
@68 = private unnamed_addr constant [3 x i8] c"14\00", align 1
@69 = private unnamed_addr constant [3 x i8] c"12\00", align 1
@70 = private unnamed_addr constant [3 x i8] c"12\00", align 1
@71 = private unnamed_addr constant [8 x i8] c"compute\00", align 1
@72 = private unnamed_addr constant [13 x i8] c"decades_base\00", align 1
@73 = private unnamed_addr constant [3 x i8] c"13\00", align 1
@74 = private unnamed_addr constant [3 x i8] c"14\00", align 1
@75 = private unnamed_addr constant [8 x i8] c"compute\00", align 1
@76 = private unnamed_addr constant [13 x i8] c"decades_base\00", align 1
@77 = private unnamed_addr constant [3 x i8] c"15\00", align 1
@78 = private unnamed_addr constant [3 x i8] c"15\00", align 1
@79 = private unnamed_addr constant [8 x i8] c"compute\00", align 1
@80 = private unnamed_addr constant [13 x i8] c"decades_base\00", align 1
@81 = private unnamed_addr constant [3 x i8] c"16\00", align 1
@82 = private unnamed_addr constant [3 x i8] c"17\00", align 1
@83 = private unnamed_addr constant [3 x i8] c"16\00", align 1
@84 = private unnamed_addr constant [8 x i8] c"compute\00", align 1
@85 = private unnamed_addr constant [13 x i8] c"decades_base\00", align 1
@86 = private unnamed_addr constant [3 x i8] c"17\00", align 1
@87 = private unnamed_addr constant [3 x i8] c"17\00", align 1
@88 = private unnamed_addr constant [8 x i8] c"compute\00", align 1
@89 = private unnamed_addr constant [13 x i8] c"decades_base\00", align 1
@90 = private unnamed_addr constant [3 x i8] c"18\00", align 1
@91 = private unnamed_addr constant [4 x i8] c"108\00", align 1
@92 = private unnamed_addr constant [8 x i8] c"compute\00", align 1
@93 = private unnamed_addr constant [13 x i8] c"decades_base\00", align 1
@94 = private unnamed_addr constant [4 x i8] c"112\00", align 1
@95 = private unnamed_addr constant [8 x i8] c"compute\00", align 1
@96 = private unnamed_addr constant [13 x i8] c"decades_base\00", align 1
@97 = private unnamed_addr constant [3 x i8] c"18\00", align 1
@98 = private unnamed_addr constant [8 x i8] c"compute\00", align 1
@99 = private unnamed_addr constant [13 x i8] c"decades_base\00", align 1
@100 = private unnamed_addr constant [3 x i8] c"19\00", align 1
@101 = private unnamed_addr constant [3 x i8] c"19\00", align 1
@102 = private unnamed_addr constant [8 x i8] c"compute\00", align 1
@103 = private unnamed_addr constant [13 x i8] c"decades_base\00", align 1
@104 = private unnamed_addr constant [3 x i8] c"20\00", align 1
@105 = private unnamed_addr constant [4 x i8] c"126\00", align 1
@106 = private unnamed_addr constant [8 x i8] c"compute\00", align 1
@107 = private unnamed_addr constant [13 x i8] c"decades_base\00", align 1
@108 = private unnamed_addr constant [4 x i8] c"128\00", align 1
@109 = private unnamed_addr constant [8 x i8] c"compute\00", align 1
@110 = private unnamed_addr constant [13 x i8] c"decades_base\00", align 1
@111 = private unnamed_addr constant [4 x i8] c"132\00", align 1
@112 = private unnamed_addr constant [8 x i8] c"compute\00", align 1
@113 = private unnamed_addr constant [13 x i8] c"decades_base\00", align 1
@114 = private unnamed_addr constant [3 x i8] c"20\00", align 1
@115 = private unnamed_addr constant [8 x i8] c"compute\00", align 1
@116 = private unnamed_addr constant [13 x i8] c"decades_base\00", align 1
@117 = private unnamed_addr constant [3 x i8] c"21\00", align 1
@118 = private unnamed_addr constant [4 x i8] c"147\00", align 1
@119 = private unnamed_addr constant [8 x i8] c"compute\00", align 1
@120 = private unnamed_addr constant [13 x i8] c"decades_base\00", align 1
@121 = private unnamed_addr constant [3 x i8] c"21\00", align 1
@122 = private unnamed_addr constant [8 x i8] c"compute\00", align 1
@123 = private unnamed_addr constant [13 x i8] c"decades_base\00", align 1
@124 = private unnamed_addr constant [3 x i8] c"22\00", align 1
@125 = private unnamed_addr constant [3 x i8] c"55\00", align 1
@126 = private unnamed_addr constant [3 x i8] c"22\00", align 1
@127 = private unnamed_addr constant [8 x i8] c"compute\00", align 1
@128 = private unnamed_addr constant [13 x i8] c"decades_base\00", align 1
@129 = private unnamed_addr constant [3 x i8] c"23\00", align 1
@130 = private unnamed_addr constant [4 x i8] c"161\00", align 1
@131 = private unnamed_addr constant [8 x i8] c"compute\00", align 1
@132 = private unnamed_addr constant [13 x i8] c"decades_base\00", align 1
@133 = private unnamed_addr constant [3 x i8] c"23\00", align 1
@134 = private unnamed_addr constant [8 x i8] c"compute\00", align 1
@135 = private unnamed_addr constant [13 x i8] c"decades_base\00", align 1
@136 = private unnamed_addr constant [3 x i8] c"24\00", align 1
@137 = private unnamed_addr constant [3 x i8] c"25\00", align 1
@138 = private unnamed_addr constant [3 x i8] c"24\00", align 1
@139 = private unnamed_addr constant [8 x i8] c"compute\00", align 1
@140 = private unnamed_addr constant [13 x i8] c"decades_base\00", align 1
@141 = private unnamed_addr constant [3 x i8] c"26\00", align 1
@142 = private unnamed_addr constant [4 x i8] c"171\00", align 1
@143 = private unnamed_addr constant [8 x i8] c"compute\00", align 1
@144 = private unnamed_addr constant [13 x i8] c"decades_base\00", align 1
@145 = private unnamed_addr constant [3 x i8] c"25\00", align 1
@146 = private unnamed_addr constant [8 x i8] c"compute\00", align 1
@147 = private unnamed_addr constant [13 x i8] c"decades_base\00", align 1
@148 = private unnamed_addr constant [3 x i8] c"26\00", align 1
@149 = private unnamed_addr constant [4 x i8] c"183\00", align 1
@150 = private unnamed_addr constant [8 x i8] c"compute\00", align 1
@151 = private unnamed_addr constant [13 x i8] c"decades_base\00", align 1
@152 = private unnamed_addr constant [3 x i8] c"26\00", align 1
@153 = private unnamed_addr constant [8 x i8] c"compute\00", align 1
@154 = private unnamed_addr constant [13 x i8] c"decades_base\00", align 1
@155 = private unnamed_addr constant [3 x i8] c"29\00", align 1
@156 = private unnamed_addr constant [3 x i8] c"27\00", align 1
@157 = private unnamed_addr constant [4 x i8] c"186\00", align 1
@158 = private unnamed_addr constant [8 x i8] c"compute\00", align 1
@159 = private unnamed_addr constant [13 x i8] c"decades_base\00", align 1
@160 = private unnamed_addr constant [3 x i8] c"27\00", align 1
@161 = private unnamed_addr constant [8 x i8] c"compute\00", align 1
@162 = private unnamed_addr constant [13 x i8] c"decades_base\00", align 1
@163 = private unnamed_addr constant [3 x i8] c"31\00", align 1
@164 = private unnamed_addr constant [3 x i8] c"28\00", align 1
@165 = private unnamed_addr constant [8 x i8] c"compute\00", align 1
@166 = private unnamed_addr constant [13 x i8] c"decades_base\00", align 1
@167 = private unnamed_addr constant [3 x i8] c"29\00", align 1
@168 = private unnamed_addr constant [4 x i8] c"202\00", align 1
@169 = private unnamed_addr constant [8 x i8] c"compute\00", align 1
@170 = private unnamed_addr constant [13 x i8] c"decades_base\00", align 1
@171 = private unnamed_addr constant [3 x i8] c"29\00", align 1
@172 = private unnamed_addr constant [8 x i8] c"compute\00", align 1
@173 = private unnamed_addr constant [13 x i8] c"decades_base\00", align 1
@174 = private unnamed_addr constant [3 x i8] c"23\00", align 1
@175 = private unnamed_addr constant [3 x i8] c"55\00", align 1
@176 = private unnamed_addr constant [3 x i8] c"30\00", align 1
@177 = private unnamed_addr constant [8 x i8] c"compute\00", align 1
@178 = private unnamed_addr constant [13 x i8] c"decades_base\00", align 1
@179 = private unnamed_addr constant [3 x i8] c"61\00", align 1
@180 = private unnamed_addr constant [4 x i8] c"220\00", align 1
@181 = private unnamed_addr constant [8 x i8] c"compute\00", align 1
@182 = private unnamed_addr constant [13 x i8] c"decades_base\00", align 1
@183 = private unnamed_addr constant [4 x i8] c"223\00", align 1
@184 = private unnamed_addr constant [8 x i8] c"compute\00", align 1
@185 = private unnamed_addr constant [13 x i8] c"decades_base\00", align 1
@186 = private unnamed_addr constant [3 x i8] c"31\00", align 1
@187 = private unnamed_addr constant [8 x i8] c"compute\00", align 1
@188 = private unnamed_addr constant [13 x i8] c"decades_base\00", align 1
@189 = private unnamed_addr constant [3 x i8] c"54\00", align 1
@190 = private unnamed_addr constant [3 x i8] c"32\00", align 1
@191 = private unnamed_addr constant [4 x i8] c"226\00", align 1
@192 = private unnamed_addr constant [8 x i8] c"compute\00", align 1
@193 = private unnamed_addr constant [13 x i8] c"decades_base\00", align 1
@194 = private unnamed_addr constant [4 x i8] c"229\00", align 1
@195 = private unnamed_addr constant [8 x i8] c"compute\00", align 1
@196 = private unnamed_addr constant [13 x i8] c"decades_base\00", align 1
@197 = private unnamed_addr constant [3 x i8] c"32\00", align 1
@198 = private unnamed_addr constant [8 x i8] c"compute\00", align 1
@199 = private unnamed_addr constant [13 x i8] c"decades_base\00", align 1
@200 = private unnamed_addr constant [3 x i8] c"33\00", align 1
@201 = private unnamed_addr constant [3 x i8] c"34\00", align 1
@202 = private unnamed_addr constant [4 x i8] c"234\00", align 1
@203 = private unnamed_addr constant [8 x i8] c"compute\00", align 1
@204 = private unnamed_addr constant [13 x i8] c"decades_base\00", align 1
@205 = private unnamed_addr constant [3 x i8] c"33\00", align 1
@206 = private unnamed_addr constant [8 x i8] c"compute\00", align 1
@207 = private unnamed_addr constant [13 x i8] c"decades_base\00", align 1
@208 = private unnamed_addr constant [3 x i8] c"51\00", align 1
@209 = private unnamed_addr constant [3 x i8] c"34\00", align 1
@210 = private unnamed_addr constant [8 x i8] c"compute\00", align 1
@211 = private unnamed_addr constant [13 x i8] c"decades_base\00", align 1
@212 = private unnamed_addr constant [3 x i8] c"49\00", align 1
@213 = private unnamed_addr constant [3 x i8] c"35\00", align 1
@214 = private unnamed_addr constant [3 x i8] c"35\00", align 1
@215 = private unnamed_addr constant [8 x i8] c"compute\00", align 1
@216 = private unnamed_addr constant [13 x i8] c"decades_base\00", align 1
@217 = private unnamed_addr constant [3 x i8] c"41\00", align 1
@218 = private unnamed_addr constant [3 x i8] c"36\00", align 1
@219 = private unnamed_addr constant [3 x i8] c"36\00", align 1
@220 = private unnamed_addr constant [8 x i8] c"compute\00", align 1
@221 = private unnamed_addr constant [13 x i8] c"decades_base\00", align 1
@222 = private unnamed_addr constant [3 x i8] c"39\00", align 1
@223 = private unnamed_addr constant [3 x i8] c"37\00", align 1
@224 = private unnamed_addr constant [3 x i8] c"37\00", align 1
@225 = private unnamed_addr constant [8 x i8] c"compute\00", align 1
@226 = private unnamed_addr constant [13 x i8] c"decades_base\00", align 1
@227 = private unnamed_addr constant [3 x i8] c"38\00", align 1
@228 = private unnamed_addr constant [3 x i8] c"48\00", align 1
@229 = private unnamed_addr constant [3 x i8] c"38\00", align 1
@230 = private unnamed_addr constant [8 x i8] c"compute\00", align 1
@231 = private unnamed_addr constant [13 x i8] c"decades_base\00", align 1
@232 = private unnamed_addr constant [3 x i8] c"48\00", align 1
@233 = private unnamed_addr constant [3 x i8] c"39\00", align 1
@234 = private unnamed_addr constant [8 x i8] c"compute\00", align 1
@235 = private unnamed_addr constant [13 x i8] c"decades_base\00", align 1
@236 = private unnamed_addr constant [3 x i8] c"40\00", align 1
@237 = private unnamed_addr constant [3 x i8] c"48\00", align 1
@238 = private unnamed_addr constant [3 x i8] c"40\00", align 1
@239 = private unnamed_addr constant [8 x i8] c"compute\00", align 1
@240 = private unnamed_addr constant [13 x i8] c"decades_base\00", align 1
@241 = private unnamed_addr constant [3 x i8] c"48\00", align 1
@242 = private unnamed_addr constant [3 x i8] c"41\00", align 1
@243 = private unnamed_addr constant [8 x i8] c"compute\00", align 1
@244 = private unnamed_addr constant [13 x i8] c"decades_base\00", align 1
@245 = private unnamed_addr constant [3 x i8] c"44\00", align 1
@246 = private unnamed_addr constant [3 x i8] c"42\00", align 1
@247 = private unnamed_addr constant [3 x i8] c"42\00", align 1
@248 = private unnamed_addr constant [8 x i8] c"compute\00", align 1
@249 = private unnamed_addr constant [13 x i8] c"decades_base\00", align 1
@250 = private unnamed_addr constant [3 x i8] c"43\00", align 1
@251 = private unnamed_addr constant [3 x i8] c"44\00", align 1
@252 = private unnamed_addr constant [8 x i8] c"compute\00", align 1
@253 = private unnamed_addr constant [13 x i8] c"decades_base\00", align 1
@254 = private unnamed_addr constant [3 x i8] c"45\00", align 1
@255 = private unnamed_addr constant [3 x i8] c"45\00", align 1
@256 = private unnamed_addr constant [8 x i8] c"compute\00", align 1
@257 = private unnamed_addr constant [13 x i8] c"decades_base\00", align 1
@258 = private unnamed_addr constant [3 x i8] c"46\00", align 1
@259 = private unnamed_addr constant [3 x i8] c"47\00", align 1
@260 = private unnamed_addr constant [3 x i8] c"46\00", align 1
@261 = private unnamed_addr constant [8 x i8] c"compute\00", align 1
@262 = private unnamed_addr constant [13 x i8] c"decades_base\00", align 1
@263 = private unnamed_addr constant [3 x i8] c"47\00", align 1
@264 = private unnamed_addr constant [3 x i8] c"47\00", align 1
@265 = private unnamed_addr constant [8 x i8] c"compute\00", align 1
@266 = private unnamed_addr constant [13 x i8] c"decades_base\00", align 1
@267 = private unnamed_addr constant [3 x i8] c"48\00", align 1
@268 = private unnamed_addr constant [4 x i8] c"310\00", align 1
@269 = private unnamed_addr constant [8 x i8] c"compute\00", align 1
@270 = private unnamed_addr constant [13 x i8] c"decades_base\00", align 1
@271 = private unnamed_addr constant [4 x i8] c"314\00", align 1
@272 = private unnamed_addr constant [8 x i8] c"compute\00", align 1
@273 = private unnamed_addr constant [13 x i8] c"decades_base\00", align 1
@274 = private unnamed_addr constant [3 x i8] c"48\00", align 1
@275 = private unnamed_addr constant [8 x i8] c"compute\00", align 1
@276 = private unnamed_addr constant [13 x i8] c"decades_base\00", align 1
@277 = private unnamed_addr constant [3 x i8] c"49\00", align 1
@278 = private unnamed_addr constant [3 x i8] c"49\00", align 1
@279 = private unnamed_addr constant [8 x i8] c"compute\00", align 1
@280 = private unnamed_addr constant [13 x i8] c"decades_base\00", align 1
@281 = private unnamed_addr constant [3 x i8] c"50\00", align 1
@282 = private unnamed_addr constant [4 x i8] c"328\00", align 1
@283 = private unnamed_addr constant [8 x i8] c"compute\00", align 1
@284 = private unnamed_addr constant [13 x i8] c"decades_base\00", align 1
@285 = private unnamed_addr constant [4 x i8] c"330\00", align 1
@286 = private unnamed_addr constant [8 x i8] c"compute\00", align 1
@287 = private unnamed_addr constant [13 x i8] c"decades_base\00", align 1
@288 = private unnamed_addr constant [4 x i8] c"334\00", align 1
@289 = private unnamed_addr constant [8 x i8] c"compute\00", align 1
@290 = private unnamed_addr constant [13 x i8] c"decades_base\00", align 1
@291 = private unnamed_addr constant [3 x i8] c"50\00", align 1
@292 = private unnamed_addr constant [8 x i8] c"compute\00", align 1
@293 = private unnamed_addr constant [13 x i8] c"decades_base\00", align 1
@294 = private unnamed_addr constant [3 x i8] c"51\00", align 1
@295 = private unnamed_addr constant [4 x i8] c"346\00", align 1
@296 = private unnamed_addr constant [8 x i8] c"compute\00", align 1
@297 = private unnamed_addr constant [13 x i8] c"decades_base\00", align 1
@298 = private unnamed_addr constant [4 x i8] c"347\00", align 1
@299 = private unnamed_addr constant [8 x i8] c"compute\00", align 1
@300 = private unnamed_addr constant [13 x i8] c"decades_base\00", align 1
@301 = private unnamed_addr constant [4 x i8] c"348\00", align 1
@302 = private unnamed_addr constant [8 x i8] c"compute\00", align 1
@303 = private unnamed_addr constant [13 x i8] c"decades_base\00", align 1
@304 = private unnamed_addr constant [3 x i8] c"51\00", align 1
@305 = private unnamed_addr constant [8 x i8] c"compute\00", align 1
@306 = private unnamed_addr constant [13 x i8] c"decades_base\00", align 1
@307 = private unnamed_addr constant [3 x i8] c"54\00", align 1
@308 = private unnamed_addr constant [3 x i8] c"52\00", align 1
@309 = private unnamed_addr constant [8 x i8] c"compute\00", align 1
@310 = private unnamed_addr constant [13 x i8] c"decades_base\00", align 1
@311 = private unnamed_addr constant [3 x i8] c"61\00", align 1
@312 = private unnamed_addr constant [3 x i8] c"53\00", align 1
@313 = private unnamed_addr constant [8 x i8] c"compute\00", align 1
@314 = private unnamed_addr constant [13 x i8] c"decades_base\00", align 1
@315 = private unnamed_addr constant [3 x i8] c"61\00", align 1
@316 = private unnamed_addr constant [3 x i8] c"54\00", align 1
@317 = private unnamed_addr constant [8 x i8] c"compute\00", align 1
@318 = private unnamed_addr constant [13 x i8] c"decades_base\00", align 1
@319 = private unnamed_addr constant [3 x i8] c"28\00", align 1
@320 = private unnamed_addr constant [3 x i8] c"31\00", align 1
@321 = private unnamed_addr constant [3 x i8] c"55\00", align 1
@322 = private unnamed_addr constant [8 x i8] c"compute\00", align 1
@323 = private unnamed_addr constant [13 x i8] c"decades_base\00", align 1
@324 = private unnamed_addr constant [3 x i8] c"56\00", align 1
@325 = private unnamed_addr constant [3 x i8] c"60\00", align 1
@326 = private unnamed_addr constant [3 x i8] c"56\00", align 1
@327 = private unnamed_addr constant [8 x i8] c"compute\00", align 1
@328 = private unnamed_addr constant [13 x i8] c"decades_base\00", align 1
@329 = private unnamed_addr constant [3 x i8] c"59\00", align 1
@330 = private unnamed_addr constant [3 x i8] c"57\00", align 1
@331 = private unnamed_addr constant [4 x i8] c"382\00", align 1
@332 = private unnamed_addr constant [8 x i8] c"compute\00", align 1
@333 = private unnamed_addr constant [13 x i8] c"decades_base\00", align 1
@334 = private unnamed_addr constant [3 x i8] c"57\00", align 1
@335 = private unnamed_addr constant [8 x i8] c"compute\00", align 1
@336 = private unnamed_addr constant [13 x i8] c"decades_base\00", align 1
@337 = private unnamed_addr constant [3 x i8] c"58\00", align 1
@338 = private unnamed_addr constant [3 x i8] c"57\00", align 1
@339 = private unnamed_addr constant [3 x i8] c"58\00", align 1
@340 = private unnamed_addr constant [8 x i8] c"compute\00", align 1
@341 = private unnamed_addr constant [13 x i8] c"decades_base\00", align 1
@342 = private unnamed_addr constant [3 x i8] c"59\00", align 1
@343 = private unnamed_addr constant [3 x i8] c"59\00", align 1
@344 = private unnamed_addr constant [8 x i8] c"compute\00", align 1
@345 = private unnamed_addr constant [13 x i8] c"decades_base\00", align 1
@346 = private unnamed_addr constant [3 x i8] c"60\00", align 1
@347 = private unnamed_addr constant [4 x i8] c"394\00", align 1
@348 = private unnamed_addr constant [8 x i8] c"compute\00", align 1
@349 = private unnamed_addr constant [13 x i8] c"decades_base\00", align 1
@350 = private unnamed_addr constant [3 x i8] c"61\00", align 1
@351 = private unnamed_addr constant [8 x i8] c"compute\00", align 1
@352 = private unnamed_addr constant [13 x i8] c"decades_base\00", align 1
@353 = private unnamed_addr constant [3 x i8] c"62\00", align 1
@354 = private unnamed_addr constant [3 x i8] c"66\00", align 1
@355 = private unnamed_addr constant [4 x i8] c"399\00", align 1
@356 = private unnamed_addr constant [8 x i8] c"compute\00", align 1
@357 = private unnamed_addr constant [13 x i8] c"decades_base\00", align 1
@358 = private unnamed_addr constant [4 x i8] c"400\00", align 1
@359 = private unnamed_addr constant [8 x i8] c"compute\00", align 1
@360 = private unnamed_addr constant [13 x i8] c"decades_base\00", align 1
@361 = private unnamed_addr constant [3 x i8] c"62\00", align 1
@362 = private unnamed_addr constant [8 x i8] c"compute\00", align 1
@363 = private unnamed_addr constant [13 x i8] c"decades_base\00", align 1
@364 = private unnamed_addr constant [3 x i8] c"65\00", align 1
@365 = private unnamed_addr constant [3 x i8] c"63\00", align 1
@366 = private unnamed_addr constant [4 x i8] c"407\00", align 1
@367 = private unnamed_addr constant [8 x i8] c"compute\00", align 1
@368 = private unnamed_addr constant [13 x i8] c"decades_base\00", align 1
@369 = private unnamed_addr constant [3 x i8] c"63\00", align 1
@370 = private unnamed_addr constant [8 x i8] c"compute\00", align 1
@371 = private unnamed_addr constant [13 x i8] c"decades_base\00", align 1
@372 = private unnamed_addr constant [3 x i8] c"64\00", align 1
@373 = private unnamed_addr constant [3 x i8] c"63\00", align 1
@374 = private unnamed_addr constant [4 x i8] c"412\00", align 1
@375 = private unnamed_addr constant [8 x i8] c"compute\00", align 1
@376 = private unnamed_addr constant [13 x i8] c"decades_base\00", align 1
@377 = private unnamed_addr constant [3 x i8] c"64\00", align 1
@378 = private unnamed_addr constant [8 x i8] c"compute\00", align 1
@379 = private unnamed_addr constant [13 x i8] c"decades_base\00", align 1
@380 = private unnamed_addr constant [3 x i8] c"65\00", align 1
@381 = private unnamed_addr constant [3 x i8] c"65\00", align 1
@382 = private unnamed_addr constant [8 x i8] c"compute\00", align 1
@383 = private unnamed_addr constant [13 x i8] c"decades_base\00", align 1
@384 = private unnamed_addr constant [3 x i8] c"66\00", align 1
@.str.1.13 = private unnamed_addr constant [30 x i8] c"Expecting one input filename\0A\00", align 1
@.str.2.14 = private unnamed_addr constant [2 x i8] c"r\00", align 1
@str = private unnamed_addr constant [25 x i8] c"Error Reading graph file\00", align 1
@.str.4.15 = private unnamed_addr constant [3 x i8] c"%d\00", align 1
@.str.5.16 = private unnamed_addr constant [6 x i8] c"%d %d\00", align 1
@.str.6.17 = private unnamed_addr constant [2 x i8] c"w\00", align 1
@.str.7.18 = private unnamed_addr constant [4 x i8] c"%d\0A\00", align 1
@.str.8.19 = private unnamed_addr constant [7 x i8] c"%d %d\0A\00", align 1

; Function Attrs: uwtable
define internal void @_GLOBAL__sub_I_tracer.cc() #0 section ".text.startup" personality i32 (...)* @__gxx_personality_v0 {
entry:
  tail call void @_ZNSt8ios_base4InitC1Ev(%"class.std::ios_base::Init"* nonnull @_ZStL8__ioinit)
  %0 = tail call i32 @__cxa_atexit(void (i8*)* bitcast (void (%"class.std::ios_base::Init"*)* @_ZNSt8ios_base4InitD1Ev to void (i8*)*), i8* getelementptr inbounds (%"class.std::ios_base::Init", %"class.std::ios_base::Init"* @_ZStL8__ioinit, i64 0, i32 0), i8* nonnull @__dso_handle) #3
  %call.i = tail call i8* @getenv(i8* getelementptr inbounds ([14 x i8], [14 x i8]* @.str.18, i64 0, i64 0)) #3
  %cmp.i = icmp ne i8* %call.i, null
  %frombool.i = zext i1 %cmp.i to i8
  store i8 %frombool.i, i8* @expert_mode, align 1, !tbaa !2
  br label %arrayctor.loop.i

arrayctor.loop.i:                                 ; preds = %invoke.cont.i, %entry
  %arrayctor.cur.idx.i = phi i64 [ 0, %entry ], [ %arrayctor.cur.add.i, %invoke.cont.i ]
  %arrayctor.cur.ptr.i = getelementptr inbounds [1024 x %"class.std::basic_ofstream"], [1024 x %"class.std::basic_ofstream"]* @f1, i64 0, i64 %arrayctor.cur.idx.i
  invoke void @_ZNSt14basic_ofstreamIcSt11char_traitsIcEEC1Ev(%"class.std::basic_ofstream"* nonnull %arrayctor.cur.ptr.i)
          to label %invoke.cont.i unwind label %lpad.i

invoke.cont.i:                                    ; preds = %arrayctor.loop.i
  %arrayctor.cur.add.i = add nuw nsw i64 %arrayctor.cur.idx.i, 1
  %arrayctor.done.i = icmp eq i64 %arrayctor.cur.add.i, 1024
  br i1 %arrayctor.done.i, label %__cxx_global_var_init.19.exit, label %arrayctor.loop.i

lpad.i:                                           ; preds = %arrayctor.loop.i
  %1 = landingpad { i8*, i32 }
          cleanup
  %arraydestroy.isempty.i = icmp eq i64 %arrayctor.cur.idx.i, 0
  br i1 %arraydestroy.isempty.i, label %eh.resume.i, label %lpad.split.i

lpad.split.i:                                     ; preds = %lpad.i
  %arraydestroy.element3.i = getelementptr inbounds %"class.std::basic_ofstream", %"class.std::basic_ofstream"* %arrayctor.cur.ptr.i, i64 -1
  tail call void @_ZNSt14basic_ofstreamIcSt11char_traitsIcEED1Ev(%"class.std::basic_ofstream"* nonnull %arraydestroy.element3.i) #3
  %arraydestroy.done7.i = icmp eq %"class.std::basic_ofstream"* %arraydestroy.element3.i, getelementptr inbounds ([1024 x %"class.std::basic_ofstream"], [1024 x %"class.std::basic_ofstream"]* @f1, i64 0, i64 0)
  br i1 %arraydestroy.done7.i, label %eh.resume.i, label %arraydestroy.body.split.i

arraydestroy.body.split.i:                        ; preds = %arraydestroy.body.split.i, %lpad.split.i
  %2 = phi %"class.std::basic_ofstream"* [ %arraydestroy.element4.i, %arraydestroy.body.split.i ], [ %arraydestroy.element3.i, %lpad.split.i ]
  %arraydestroy.element4.i = getelementptr inbounds %"class.std::basic_ofstream", %"class.std::basic_ofstream"* %2, i64 -1
  tail call void @_ZNSt14basic_ofstreamIcSt11char_traitsIcEED1Ev(%"class.std::basic_ofstream"* nonnull %arraydestroy.element4.i) #3
  %arraydestroy.done.i = icmp eq %"class.std::basic_ofstream"* %arraydestroy.element4.i, getelementptr inbounds ([1024 x %"class.std::basic_ofstream"], [1024 x %"class.std::basic_ofstream"]* @f1, i64 0, i64 0)
  br i1 %arraydestroy.done.i, label %eh.resume.i, label %arraydestroy.body.split.i

eh.resume.i:                                      ; preds = %arraydestroy.body.split.i, %lpad.split.i, %lpad.i
  resume { i8*, i32 } %1

__cxx_global_var_init.19.exit:                    ; preds = %invoke.cont.i
  %3 = tail call i32 @__cxa_atexit(void (i8*)* nonnull @__cxx_global_array_dtor, i8* null, i8* nonnull @__dso_handle) #3
  br label %arrayctor.loop.i3

arrayctor.loop.i3:                                ; preds = %invoke.cont.i6, %__cxx_global_var_init.19.exit
  %arrayctor.cur.idx.i1 = phi i64 [ 0, %__cxx_global_var_init.19.exit ], [ %arrayctor.cur.add.i4, %invoke.cont.i6 ]
  %arrayctor.cur.ptr.i2 = getelementptr inbounds [1024 x %"class.std::basic_ofstream"], [1024 x %"class.std::basic_ofstream"]* @f2, i64 0, i64 %arrayctor.cur.idx.i1
  invoke void @_ZNSt14basic_ofstreamIcSt11char_traitsIcEEC1Ev(%"class.std::basic_ofstream"* nonnull %arrayctor.cur.ptr.i2)
          to label %invoke.cont.i6 unwind label %lpad.i8

invoke.cont.i6:                                   ; preds = %arrayctor.loop.i3
  %arrayctor.cur.add.i4 = add nuw nsw i64 %arrayctor.cur.idx.i1, 1
  %arrayctor.done.i5 = icmp eq i64 %arrayctor.cur.add.i4, 1024
  br i1 %arrayctor.done.i5, label %__cxx_global_var_init.20.exit, label %arrayctor.loop.i3

lpad.i8:                                          ; preds = %arrayctor.loop.i3
  %4 = landingpad { i8*, i32 }
          cleanup
  %arraydestroy.isempty.i7 = icmp eq i64 %arrayctor.cur.idx.i1, 0
  br i1 %arraydestroy.isempty.i7, label %eh.resume.i15, label %lpad.split.i11

lpad.split.i11:                                   ; preds = %lpad.i8
  %arraydestroy.element3.i9 = getelementptr inbounds %"class.std::basic_ofstream", %"class.std::basic_ofstream"* %arrayctor.cur.ptr.i2, i64 -1
  tail call void @_ZNSt14basic_ofstreamIcSt11char_traitsIcEED1Ev(%"class.std::basic_ofstream"* nonnull %arraydestroy.element3.i9) #3
  %arraydestroy.done7.i10 = icmp eq %"class.std::basic_ofstream"* %arraydestroy.element3.i9, getelementptr inbounds ([1024 x %"class.std::basic_ofstream"], [1024 x %"class.std::basic_ofstream"]* @f2, i64 0, i64 0)
  br i1 %arraydestroy.done7.i10, label %eh.resume.i15, label %arraydestroy.body.split.i14

arraydestroy.body.split.i14:                      ; preds = %arraydestroy.body.split.i14, %lpad.split.i11
  %5 = phi %"class.std::basic_ofstream"* [ %arraydestroy.element4.i12, %arraydestroy.body.split.i14 ], [ %arraydestroy.element3.i9, %lpad.split.i11 ]
  %arraydestroy.element4.i12 = getelementptr inbounds %"class.std::basic_ofstream", %"class.std::basic_ofstream"* %5, i64 -1
  tail call void @_ZNSt14basic_ofstreamIcSt11char_traitsIcEED1Ev(%"class.std::basic_ofstream"* nonnull %arraydestroy.element4.i12) #3
  %arraydestroy.done.i13 = icmp eq %"class.std::basic_ofstream"* %arraydestroy.element4.i12, getelementptr inbounds ([1024 x %"class.std::basic_ofstream"], [1024 x %"class.std::basic_ofstream"]* @f2, i64 0, i64 0)
  br i1 %arraydestroy.done.i13, label %eh.resume.i15, label %arraydestroy.body.split.i14

eh.resume.i15:                                    ; preds = %arraydestroy.body.split.i14, %lpad.split.i11, %lpad.i8
  resume { i8*, i32 } %4

__cxx_global_var_init.20.exit:                    ; preds = %invoke.cont.i6
  %6 = tail call i32 @__cxa_atexit(void (i8*)* nonnull @__cxx_global_array_dtor.21, i8* null, i8* nonnull @__dso_handle) #3
  br label %arrayctor.loop.i18

arrayctor.loop.i18:                               ; preds = %invoke.cont.i21, %__cxx_global_var_init.20.exit
  %arrayctor.cur.idx.i16 = phi i64 [ 0, %__cxx_global_var_init.20.exit ], [ %arrayctor.cur.add.i19, %invoke.cont.i21 ]
  %arrayctor.cur.ptr.i17 = getelementptr inbounds [1024 x %"class.std::basic_ofstream"], [1024 x %"class.std::basic_ofstream"]* @f3, i64 0, i64 %arrayctor.cur.idx.i16
  invoke void @_ZNSt14basic_ofstreamIcSt11char_traitsIcEEC1Ev(%"class.std::basic_ofstream"* nonnull %arrayctor.cur.ptr.i17)
          to label %invoke.cont.i21 unwind label %lpad.i23

invoke.cont.i21:                                  ; preds = %arrayctor.loop.i18
  %arrayctor.cur.add.i19 = add nuw nsw i64 %arrayctor.cur.idx.i16, 1
  %arrayctor.done.i20 = icmp eq i64 %arrayctor.cur.add.i19, 1024
  br i1 %arrayctor.done.i20, label %__cxx_global_var_init.22.exit, label %arrayctor.loop.i18

lpad.i23:                                         ; preds = %arrayctor.loop.i18
  %7 = landingpad { i8*, i32 }
          cleanup
  %arraydestroy.isempty.i22 = icmp eq i64 %arrayctor.cur.idx.i16, 0
  br i1 %arraydestroy.isempty.i22, label %eh.resume.i30, label %lpad.split.i26

lpad.split.i26:                                   ; preds = %lpad.i23
  %arraydestroy.element3.i24 = getelementptr inbounds %"class.std::basic_ofstream", %"class.std::basic_ofstream"* %arrayctor.cur.ptr.i17, i64 -1
  tail call void @_ZNSt14basic_ofstreamIcSt11char_traitsIcEED1Ev(%"class.std::basic_ofstream"* nonnull %arraydestroy.element3.i24) #3
  %arraydestroy.done7.i25 = icmp eq %"class.std::basic_ofstream"* %arraydestroy.element3.i24, getelementptr inbounds ([1024 x %"class.std::basic_ofstream"], [1024 x %"class.std::basic_ofstream"]* @f3, i64 0, i64 0)
  br i1 %arraydestroy.done7.i25, label %eh.resume.i30, label %arraydestroy.body.split.i29

arraydestroy.body.split.i29:                      ; preds = %arraydestroy.body.split.i29, %lpad.split.i26
  %8 = phi %"class.std::basic_ofstream"* [ %arraydestroy.element4.i27, %arraydestroy.body.split.i29 ], [ %arraydestroy.element3.i24, %lpad.split.i26 ]
  %arraydestroy.element4.i27 = getelementptr inbounds %"class.std::basic_ofstream", %"class.std::basic_ofstream"* %8, i64 -1
  tail call void @_ZNSt14basic_ofstreamIcSt11char_traitsIcEED1Ev(%"class.std::basic_ofstream"* nonnull %arraydestroy.element4.i27) #3
  %arraydestroy.done.i28 = icmp eq %"class.std::basic_ofstream"* %arraydestroy.element4.i27, getelementptr inbounds ([1024 x %"class.std::basic_ofstream"], [1024 x %"class.std::basic_ofstream"]* @f3, i64 0, i64 0)
  br i1 %arraydestroy.done.i28, label %eh.resume.i30, label %arraydestroy.body.split.i29

eh.resume.i30:                                    ; preds = %arraydestroy.body.split.i29, %lpad.split.i26, %lpad.i23
  resume { i8*, i32 } %7

__cxx_global_var_init.22.exit:                    ; preds = %invoke.cont.i21
  %9 = tail call i32 @__cxa_atexit(void (i8*)* nonnull @__cxx_global_array_dtor.23, i8* null, i8* nonnull @__dso_handle) #3
  ret void
}

declare dso_local i32 @__gxx_personality_v0(...)

declare dso_local void @_ZNSt8ios_base4InitC1Ev(%"class.std::ios_base::Init"*) unnamed_addr #1

; Function Attrs: nounwind
declare dso_local void @_ZNSt8ios_base4InitD1Ev(%"class.std::ios_base::Init"*) unnamed_addr #2

; Function Attrs: nounwind
declare dso_local i32 @__cxa_atexit(void (i8*)*, i8*, i8*) local_unnamed_addr #3

; Function Attrs: nounwind readonly
declare dso_local i8* @getenv(i8* nocapture) local_unnamed_addr #4

; Function Attrs: uwtable
declare dso_local void @_ZNSt14basic_ofstreamIcSt11char_traitsIcEEC1Ev(%"class.std::basic_ofstream"*) unnamed_addr #0 align 2

; Function Attrs: nounwind uwtable
declare dso_local void @_ZNSt14basic_ofstreamIcSt11char_traitsIcEED1Ev(%"class.std::basic_ofstream"*) unnamed_addr #5 align 2

; Function Attrs: nounwind uwtable
define internal void @__cxx_global_array_dtor(i8* nocapture readnone) #5 section ".text.startup" {
entry:
  tail call void @_ZNSt14basic_ofstreamIcSt11char_traitsIcEED1Ev(%"class.std::basic_ofstream"* getelementptr inbounds ([1024 x %"class.std::basic_ofstream"], [1024 x %"class.std::basic_ofstream"]* @f1, i64 0, i64 1023)) #3
  br label %arraydestroy.body.split

arraydestroy.body.split:                          ; preds = %arraydestroy.body.split, %entry
  %1 = phi %"class.std::basic_ofstream"* [ getelementptr inbounds ([1024 x %"class.std::basic_ofstream"], [1024 x %"class.std::basic_ofstream"]* @f1, i64 0, i64 1023), %entry ], [ %arraydestroy.element3, %arraydestroy.body.split ]
  %arraydestroy.element3 = getelementptr inbounds %"class.std::basic_ofstream", %"class.std::basic_ofstream"* %1, i64 -1
  tail call void @_ZNSt14basic_ofstreamIcSt11char_traitsIcEED1Ev(%"class.std::basic_ofstream"* nonnull %arraydestroy.element3) #3
  %arraydestroy.done = icmp eq %"class.std::basic_ofstream"* %arraydestroy.element3, getelementptr inbounds ([1024 x %"class.std::basic_ofstream"], [1024 x %"class.std::basic_ofstream"]* @f1, i64 0, i64 0)
  br i1 %arraydestroy.done, label %arraydestroy.done1, label %arraydestroy.body.split

arraydestroy.done1:                               ; preds = %arraydestroy.body.split
  ret void
}

; Function Attrs: nounwind uwtable
define internal void @__cxx_global_array_dtor.21(i8* nocapture readnone) #5 section ".text.startup" {
entry:
  tail call void @_ZNSt14basic_ofstreamIcSt11char_traitsIcEED1Ev(%"class.std::basic_ofstream"* getelementptr inbounds ([1024 x %"class.std::basic_ofstream"], [1024 x %"class.std::basic_ofstream"]* @f2, i64 0, i64 1023)) #3
  br label %arraydestroy.body.split

arraydestroy.body.split:                          ; preds = %arraydestroy.body.split, %entry
  %1 = phi %"class.std::basic_ofstream"* [ getelementptr inbounds ([1024 x %"class.std::basic_ofstream"], [1024 x %"class.std::basic_ofstream"]* @f2, i64 0, i64 1023), %entry ], [ %arraydestroy.element3, %arraydestroy.body.split ]
  %arraydestroy.element3 = getelementptr inbounds %"class.std::basic_ofstream", %"class.std::basic_ofstream"* %1, i64 -1
  tail call void @_ZNSt14basic_ofstreamIcSt11char_traitsIcEED1Ev(%"class.std::basic_ofstream"* nonnull %arraydestroy.element3) #3
  %arraydestroy.done = icmp eq %"class.std::basic_ofstream"* %arraydestroy.element3, getelementptr inbounds ([1024 x %"class.std::basic_ofstream"], [1024 x %"class.std::basic_ofstream"]* @f2, i64 0, i64 0)
  br i1 %arraydestroy.done, label %arraydestroy.done1, label %arraydestroy.body.split

arraydestroy.done1:                               ; preds = %arraydestroy.body.split
  ret void
}

; Function Attrs: nounwind uwtable
define internal void @__cxx_global_array_dtor.23(i8* nocapture readnone) #5 section ".text.startup" {
entry:
  tail call void @_ZNSt14basic_ofstreamIcSt11char_traitsIcEED1Ev(%"class.std::basic_ofstream"* getelementptr inbounds ([1024 x %"class.std::basic_ofstream"], [1024 x %"class.std::basic_ofstream"]* @f3, i64 0, i64 1023)) #3
  br label %arraydestroy.body.split

arraydestroy.body.split:                          ; preds = %arraydestroy.body.split, %entry
  %1 = phi %"class.std::basic_ofstream"* [ getelementptr inbounds ([1024 x %"class.std::basic_ofstream"], [1024 x %"class.std::basic_ofstream"]* @f3, i64 0, i64 1023), %entry ], [ %arraydestroy.element3, %arraydestroy.body.split ]
  %arraydestroy.element3 = getelementptr inbounds %"class.std::basic_ofstream", %"class.std::basic_ofstream"* %1, i64 -1
  tail call void @_ZNSt14basic_ofstreamIcSt11char_traitsIcEED1Ev(%"class.std::basic_ofstream"* nonnull %arraydestroy.element3) #3
  %arraydestroy.done = icmp eq %"class.std::basic_ofstream"* %arraydestroy.element3, getelementptr inbounds ([1024 x %"class.std::basic_ofstream"], [1024 x %"class.std::basic_ofstream"]* @f3, i64 0, i64 0)
  br i1 %arraydestroy.done, label %arraydestroy.done1, label %arraydestroy.body.split

arraydestroy.done1:                               ; preds = %arraydestroy.body.split
  ret void
}

; Function Attrs: noinline uwtable
define dso_local void @tracer_cleanup() #6 {
entry:
  br label %for.body

for.cond.cleanup:                                 ; preds = %for.inc
  ret void

for.body:                                         ; preds = %for.inc, %entry
  %indvars.iv = phi i64 [ 0, %entry ], [ %indvars.iv.next, %for.inc ]
  %arrayidx = getelementptr inbounds [1024 x %"class.std::basic_ofstream"], [1024 x %"class.std::basic_ofstream"]* @f1, i64 0, i64 %indvars.iv
  %_M_file.i.i = getelementptr inbounds [1024 x %"class.std::basic_ofstream"], [1024 x %"class.std::basic_ofstream"]* @f1, i64 0, i64 %indvars.iv, i32 1, i32 2
  %call.i.i = tail call zeroext i1 @_ZNKSt12__basic_fileIcE7is_openEv(%"class.std::__basic_file"* nonnull %_M_file.i.i) #22
  br i1 %call.i.i, label %if.then, label %if.end

if.then:                                          ; preds = %for.body
  %_M_filebuf.i = getelementptr inbounds [1024 x %"class.std::basic_ofstream"], [1024 x %"class.std::basic_ofstream"]* @f1, i64 0, i64 %indvars.iv, i32 1
  %call.i = tail call %"class.std::basic_filebuf"* @_ZNSt13basic_filebufIcSt11char_traitsIcEE5closeEv(%"class.std::basic_filebuf"* nonnull %_M_filebuf.i)
  %tobool.i = icmp eq %"class.std::basic_filebuf"* %call.i, null
  br i1 %tobool.i, label %if.then.i, label %if.end

if.then.i:                                        ; preds = %if.then
  %0 = bitcast %"class.std::basic_ofstream"* %arrayidx to i8**
  %vtable.i = load i8*, i8** %0, align 16, !tbaa !6
  %vbase.offset.ptr.i = getelementptr i8, i8* %vtable.i, i64 -24
  %1 = bitcast i8* %vbase.offset.ptr.i to i64*
  %vbase.offset.i = load i64, i64* %1, align 8
  %2 = bitcast %"class.std::basic_ofstream"* %arrayidx to i8*
  %add.ptr.i = getelementptr inbounds i8, i8* %2, i64 %vbase.offset.i
  %3 = bitcast i8* %add.ptr.i to %"class.std::basic_ios"*
  %_M_streambuf_state.i.i.i = getelementptr inbounds i8, i8* %add.ptr.i, i64 32
  %4 = bitcast i8* %_M_streambuf_state.i.i.i to i32*
  %5 = load i32, i32* %4, align 8, !tbaa !8
  %or.i.i.i = or i32 %5, 4
  tail call void @_ZNSt9basic_iosIcSt11char_traitsIcEE5clearESt12_Ios_Iostate(%"class.std::basic_ios"* nonnull %3, i32 %or.i.i.i)
  br label %if.end

if.end:                                           ; preds = %if.then.i, %if.then, %for.body
  %arrayidx4 = getelementptr inbounds [1024 x %"class.std::basic_ofstream"], [1024 x %"class.std::basic_ofstream"]* @f2, i64 0, i64 %indvars.iv
  %_M_file.i.i25 = getelementptr inbounds [1024 x %"class.std::basic_ofstream"], [1024 x %"class.std::basic_ofstream"]* @f2, i64 0, i64 %indvars.iv, i32 1, i32 2
  %call.i.i26 = tail call zeroext i1 @_ZNKSt12__basic_fileIcE7is_openEv(%"class.std::__basic_file"* nonnull %_M_file.i.i25) #22
  br i1 %call.i.i26, label %if.then6, label %if.end9

if.then6:                                         ; preds = %if.end
  %_M_filebuf.i27 = getelementptr inbounds [1024 x %"class.std::basic_ofstream"], [1024 x %"class.std::basic_ofstream"]* @f2, i64 0, i64 %indvars.iv, i32 1
  %call.i28 = tail call %"class.std::basic_filebuf"* @_ZNSt13basic_filebufIcSt11char_traitsIcEE5closeEv(%"class.std::basic_filebuf"* nonnull %_M_filebuf.i27)
  %tobool.i29 = icmp eq %"class.std::basic_filebuf"* %call.i28, null
  br i1 %tobool.i29, label %if.then.i36, label %if.end9

if.then.i36:                                      ; preds = %if.then6
  %6 = bitcast %"class.std::basic_ofstream"* %arrayidx4 to i8**
  %vtable.i30 = load i8*, i8** %6, align 16, !tbaa !6
  %vbase.offset.ptr.i31 = getelementptr i8, i8* %vtable.i30, i64 -24
  %7 = bitcast i8* %vbase.offset.ptr.i31 to i64*
  %vbase.offset.i32 = load i64, i64* %7, align 8
  %8 = bitcast %"class.std::basic_ofstream"* %arrayidx4 to i8*
  %add.ptr.i33 = getelementptr inbounds i8, i8* %8, i64 %vbase.offset.i32
  %9 = bitcast i8* %add.ptr.i33 to %"class.std::basic_ios"*
  %_M_streambuf_state.i.i.i34 = getelementptr inbounds i8, i8* %add.ptr.i33, i64 32
  %10 = bitcast i8* %_M_streambuf_state.i.i.i34 to i32*
  %11 = load i32, i32* %10, align 8, !tbaa !8
  %or.i.i.i35 = or i32 %11, 4
  tail call void @_ZNSt9basic_iosIcSt11char_traitsIcEE5clearESt12_Ios_Iostate(%"class.std::basic_ios"* nonnull %9, i32 %or.i.i.i35)
  br label %if.end9

if.end9:                                          ; preds = %if.then.i36, %if.then6, %if.end
  %arrayidx11 = getelementptr inbounds [1024 x %"class.std::basic_ofstream"], [1024 x %"class.std::basic_ofstream"]* @f3, i64 0, i64 %indvars.iv
  %_M_file.i.i38 = getelementptr inbounds [1024 x %"class.std::basic_ofstream"], [1024 x %"class.std::basic_ofstream"]* @f3, i64 0, i64 %indvars.iv, i32 1, i32 2
  %call.i.i39 = tail call zeroext i1 @_ZNKSt12__basic_fileIcE7is_openEv(%"class.std::__basic_file"* nonnull %_M_file.i.i38) #22
  br i1 %call.i.i39, label %if.then13, label %for.inc

if.then13:                                        ; preds = %if.end9
  %_M_filebuf.i40 = getelementptr inbounds [1024 x %"class.std::basic_ofstream"], [1024 x %"class.std::basic_ofstream"]* @f3, i64 0, i64 %indvars.iv, i32 1
  %call.i41 = tail call %"class.std::basic_filebuf"* @_ZNSt13basic_filebufIcSt11char_traitsIcEE5closeEv(%"class.std::basic_filebuf"* nonnull %_M_filebuf.i40)
  %tobool.i42 = icmp eq %"class.std::basic_filebuf"* %call.i41, null
  br i1 %tobool.i42, label %if.then.i49, label %for.inc

if.then.i49:                                      ; preds = %if.then13
  %12 = bitcast %"class.std::basic_ofstream"* %arrayidx11 to i8**
  %vtable.i43 = load i8*, i8** %12, align 16, !tbaa !6
  %vbase.offset.ptr.i44 = getelementptr i8, i8* %vtable.i43, i64 -24
  %13 = bitcast i8* %vbase.offset.ptr.i44 to i64*
  %vbase.offset.i45 = load i64, i64* %13, align 8
  %14 = bitcast %"class.std::basic_ofstream"* %arrayidx11 to i8*
  %add.ptr.i46 = getelementptr inbounds i8, i8* %14, i64 %vbase.offset.i45
  %15 = bitcast i8* %add.ptr.i46 to %"class.std::basic_ios"*
  %_M_streambuf_state.i.i.i47 = getelementptr inbounds i8, i8* %add.ptr.i46, i64 32
  %16 = bitcast i8* %_M_streambuf_state.i.i.i47 to i32*
  %17 = load i32, i32* %16, align 8, !tbaa !8
  %or.i.i.i48 = or i32 %17, 4
  tail call void @_ZNSt9basic_iosIcSt11char_traitsIcEE5clearESt12_Ios_Iostate(%"class.std::basic_ios"* nonnull %15, i32 %or.i.i.i48)
  br label %for.inc

for.inc:                                          ; preds = %if.then.i49, %if.then13, %if.end9
  %indvars.iv.next = add nuw nsw i64 %indvars.iv, 1
  %exitcond = icmp eq i64 %indvars.iv.next, 1024
  br i1 %exitcond, label %for.cond.cleanup, label %for.body
}

; Function Attrs: nounwind readonly
declare dso_local zeroext i1 @_ZNKSt12__basic_fileIcE7is_openEv(%"class.std::__basic_file"*) local_unnamed_addr #4

declare dso_local %"class.std::basic_filebuf"* @_ZNSt13basic_filebufIcSt11char_traitsIcEE5closeEv(%"class.std::basic_filebuf"*) local_unnamed_addr #1

declare dso_local void @_ZNSt9basic_iosIcSt11char_traitsIcEE5clearESt12_Ios_Iostate(%"class.std::basic_ios"*, i32) local_unnamed_addr #1

; Function Attrs: noinline uwtable
define dso_local i8* @_Z12get_dir_nameSsSsSs(%"class.std::basic_string"* nocapture readonly %run_dir, %"class.std::basic_string"* nocapture readonly %kernel_type, %"class.std::basic_string"* nocapture readonly %type) local_unnamed_addr #6 personality i8* bitcast (i32 (...)* @__gxx_personality_v0 to i8*) {
entry:
  %ref.tmp.i.i.i.i41 = alloca %"class.std::ios_base::Init", align 1
  %ref.tmp.i.i.i.i = alloca %"class.std::ios_base::Init", align 1
  %ref.tmp.i = alloca %"class.std::ios_base::Init", align 1
  %ret = alloca %"class.std::basic_ostringstream", align 8
  %ref.tmp = alloca %"class.std::basic_string", align 8
  %call = tail call i32 @omp_get_thread_num() #3
  %cmp = icmp sgt i32 %call, 1023
  br i1 %cmp, label %if.then, label %if.end

if.then:                                          ; preds = %entry
  %call1 = tail call dereferenceable(272) %"class.std::basic_ostream"* @_ZStlsISt11char_traitsIcEERSt13basic_ostreamIcT_ES5_PKc(%"class.std::basic_ostream"* nonnull dereferenceable(272) @_ZSt4cout, i8* getelementptr inbounds ([72 x i8], [72 x i8]* @.str, i64 0, i64 0))
  %call2 = tail call dereferenceable(272) %"class.std::basic_ostream"* @_ZStlsISt11char_traitsIcEERSt13basic_ostreamIcT_ES5_PKc(%"class.std::basic_ostream"* nonnull dereferenceable(272) %call1, i8* getelementptr inbounds ([2 x i8], [2 x i8]* @.str.1, i64 0, i64 0))
  tail call void @__assert_fail(i8* getelementptr inbounds ([2 x i8], [2 x i8]* @.str.2, i64 0, i64 0), i8* getelementptr inbounds ([10 x i8], [10 x i8]* @.str.3, i64 0, i64 0), i32 43, i8* getelementptr inbounds ([64 x i8], [64 x i8]* @__PRETTY_FUNCTION__._Z12get_dir_nameSsSsSs, i64 0, i64 0)) #23
  unreachable

if.end:                                           ; preds = %entry
  %0 = bitcast %"class.std::basic_ostringstream"* %ret to i8*
  call void @llvm.lifetime.start.p0i8(i64 352, i8* nonnull %0) #3
  call void @_ZNSt19basic_ostringstreamIcSt11char_traitsIcESaIcEEC1ESt13_Ios_Openmode(%"class.std::basic_ostringstream"* nonnull %ret, i32 16)
  %1 = bitcast %"class.std::basic_ostringstream"* %ret to %"class.std::basic_ostream"*
  %_M_p.i.i.i = getelementptr inbounds %"class.std::basic_string", %"class.std::basic_string"* %run_dir, i64 0, i32 0, i32 0
  %2 = load i8*, i8** %_M_p.i.i.i, align 8, !tbaa !17
  %arrayidx.i.i.i = getelementptr inbounds i8, i8* %2, i64 -24
  %_M_length.i.i = bitcast i8* %arrayidx.i.i.i to i64*
  %3 = load i64, i64* %_M_length.i.i, align 8, !tbaa !20
  %call2.i22 = invoke dereferenceable(272) %"class.std::basic_ostream"* @_ZSt16__ostream_insertIcSt11char_traitsIcEERSt13basic_ostreamIT_T0_ES6_PKS3_l(%"class.std::basic_ostream"* nonnull dereferenceable(272) %1, i8* %2, i64 %3)
          to label %invoke.cont unwind label %lpad

invoke.cont:                                      ; preds = %if.end
  %call1.i23 = invoke dereferenceable(272) %"class.std::basic_ostream"* @_ZSt16__ostream_insertIcSt11char_traitsIcEERSt13basic_ostreamIT_T0_ES6_PKS3_l(%"class.std::basic_ostream"* nonnull dereferenceable(272) %call2.i22, i8* nonnull getelementptr inbounds ([9 x i8], [9 x i8]* @.str.4, i64 0, i64 0), i64 8)
          to label %invoke.cont4 unwind label %lpad

invoke.cont4:                                     ; preds = %invoke.cont
  %_M_p.i.i.i24 = getelementptr inbounds %"class.std::basic_string", %"class.std::basic_string"* %kernel_type, i64 0, i32 0, i32 0
  %4 = load i8*, i8** %_M_p.i.i.i24, align 8, !tbaa !17
  %arrayidx.i.i.i25 = getelementptr inbounds i8, i8* %4, i64 -24
  %_M_length.i.i26 = bitcast i8* %arrayidx.i.i.i25 to i64*
  %5 = load i64, i64* %_M_length.i.i26, align 8, !tbaa !20
  %call2.i27 = invoke dereferenceable(272) %"class.std::basic_ostream"* @_ZSt16__ostream_insertIcSt11char_traitsIcEERSt13basic_ostreamIT_T0_ES6_PKS3_l(%"class.std::basic_ostream"* nonnull dereferenceable(272) %call2.i22, i8* %4, i64 %5)
          to label %invoke.cont6 unwind label %lpad

invoke.cont6:                                     ; preds = %invoke.cont4
  %call1.i30 = invoke dereferenceable(272) %"class.std::basic_ostream"* @_ZSt16__ostream_insertIcSt11char_traitsIcEERSt13basic_ostreamIT_T0_ES6_PKS3_l(%"class.std::basic_ostream"* nonnull dereferenceable(272) %call2.i27, i8* nonnull getelementptr inbounds ([2 x i8], [2 x i8]* @.str.5, i64 0, i64 0), i64 1)
          to label %invoke.cont8 unwind label %lpad

invoke.cont8:                                     ; preds = %invoke.cont6
  %call10 = call i32 @omp_get_thread_num() #3
  %call12 = invoke dereferenceable(272) %"class.std::basic_ostream"* @_ZNSolsEi(%"class.std::basic_ostream"* nonnull %call2.i27, i32 %call10)
          to label %invoke.cont11 unwind label %lpad

invoke.cont11:                                    ; preds = %invoke.cont8
  %call1.i33 = invoke dereferenceable(272) %"class.std::basic_ostream"* @_ZSt16__ostream_insertIcSt11char_traitsIcEERSt13basic_ostreamIT_T0_ES6_PKS3_l(%"class.std::basic_ostream"* nonnull dereferenceable(272) %call12, i8* nonnull getelementptr inbounds ([2 x i8], [2 x i8]* @.str.6, i64 0, i64 0), i64 1)
          to label %invoke.cont13 unwind label %lpad

invoke.cont13:                                    ; preds = %invoke.cont11
  %_M_p.i.i.i35 = getelementptr inbounds %"class.std::basic_string", %"class.std::basic_string"* %type, i64 0, i32 0, i32 0
  %6 = load i8*, i8** %_M_p.i.i.i35, align 8, !tbaa !17
  %arrayidx.i.i.i36 = getelementptr inbounds i8, i8* %6, i64 -24
  %_M_length.i.i37 = bitcast i8* %arrayidx.i.i.i36 to i64*
  %7 = load i64, i64* %_M_length.i.i37, align 8, !tbaa !20
  %call2.i38 = invoke dereferenceable(272) %"class.std::basic_ostream"* @_ZSt16__ostream_insertIcSt11char_traitsIcEERSt13basic_ostreamIT_T0_ES6_PKS3_l(%"class.std::basic_ostream"* nonnull dereferenceable(272) %call12, i8* %6, i64 %7)
          to label %invoke.cont15 unwind label %lpad

invoke.cont15:                                    ; preds = %invoke.cont13
  %8 = bitcast %"class.std::basic_string"* %ref.tmp to i8*
  call void @llvm.lifetime.start.p0i8(i64 8, i8* nonnull %8) #3
  %_M_stringbuf.i = getelementptr inbounds %"class.std::basic_ostringstream", %"class.std::basic_ostringstream"* %ret, i64 0, i32 1
  invoke void @_ZNKSt15basic_stringbufIcSt11char_traitsIcESaIcEE3strEv(%"class.std::basic_string"* nonnull sret %ref.tmp, %"class.std::basic_stringbuf"* nonnull %_M_stringbuf.i)
          to label %invoke.cont18 unwind label %lpad17

invoke.cont18:                                    ; preds = %invoke.cont15
  %_M_p.i.i = getelementptr inbounds %"class.std::basic_string", %"class.std::basic_string"* %ref.tmp, i64 0, i32 0, i32 0
  %9 = load i8*, i8** %_M_p.i.i, align 8, !tbaa !17
  %arrayidx.i.i = getelementptr inbounds i8, i8* %9, i64 -24
  %10 = bitcast i8* %arrayidx.i.i to %"struct.std::basic_string<char, std::char_traits<char>, std::allocator<char> >::_Rep"*
  %11 = getelementptr inbounds %"class.std::ios_base::Init", %"class.std::ios_base::Init"* %ref.tmp.i, i64 0, i32 0
  call void @llvm.lifetime.start.p0i8(i64 1, i8* nonnull %11) #3
  %cmp.i.i = icmp eq i8* %arrayidx.i.i, bitcast ([0 x i64]* @_ZNSs4_Rep20_S_empty_rep_storageE to i8*)
  br i1 %cmp.i.i, label %_ZNSsD2Ev.exit, label %if.then.i.i, !prof !22

if.then.i.i:                                      ; preds = %invoke.cont18
  %_M_refcount.i.i = getelementptr inbounds i8, i8* %9, i64 -8
  %12 = bitcast i8* %_M_refcount.i.i to i32*
  br i1 icmp ne (i8* bitcast (i32 (i32*, void (i8*)*)* @__pthread_key_create to i8*), i8* null), label %if.then.i.i.i, label %if.else.i.i.i

if.then.i.i.i:                                    ; preds = %if.then.i.i
  %13 = atomicrmw volatile add i32* %12, i32 -1 acq_rel
  br label %invoke.cont.i.i

if.else.i.i.i:                                    ; preds = %if.then.i.i
  %14 = load i32, i32* %12, align 4, !tbaa !23
  %add.i.i.i.i = add nsw i32 %14, -1
  store i32 %add.i.i.i.i, i32* %12, align 4, !tbaa !23
  br label %invoke.cont.i.i

invoke.cont.i.i:                                  ; preds = %if.else.i.i.i, %if.then.i.i.i
  %retval.0.i.i.i = phi i32 [ %13, %if.then.i.i.i ], [ %14, %if.else.i.i.i ]
  %cmp3.i.i = icmp slt i32 %retval.0.i.i.i, 1
  br i1 %cmp3.i.i, label %if.then4.i.i, label %_ZNSsD2Ev.exit

if.then4.i.i:                                     ; preds = %invoke.cont.i.i
  call void @_ZNSs4_Rep10_M_destroyERKSaIcE(%"struct.std::basic_string<char, std::char_traits<char>, std::allocator<char> >::_Rep"* nonnull %10, %"class.std::ios_base::Init"* nonnull dereferenceable(1) %ref.tmp.i) #3
  br label %_ZNSsD2Ev.exit

_ZNSsD2Ev.exit:                                   ; preds = %if.then4.i.i, %invoke.cont.i.i, %invoke.cont18
  call void @llvm.lifetime.end.p0i8(i64 1, i8* nonnull %11) #3
  call void @llvm.lifetime.end.p0i8(i64 8, i8* nonnull %8) #3
  %15 = load i64, i64* bitcast ([4 x i8*]* @_ZTTSt19basic_ostringstreamIcSt11char_traitsIcESaIcEE to i64*), align 8
  %16 = bitcast %"class.std::basic_ostringstream"* %ret to i64*
  store i64 %15, i64* %16, align 8, !tbaa !6
  %17 = load i64, i64* bitcast (i8** getelementptr inbounds ([4 x i8*], [4 x i8*]* @_ZTTSt19basic_ostringstreamIcSt11char_traitsIcESaIcEE, i64 0, i64 3) to i64*), align 8
  %vtable.cast.i.i = inttoptr i64 %15 to i8*
  %vbase.offset.ptr.i.i = getelementptr i8, i8* %vtable.cast.i.i, i64 -24
  %18 = bitcast i8* %vbase.offset.ptr.i.i to i64*
  %vbase.offset.i.i = load i64, i64* %18, align 8
  %add.ptr.i.i = getelementptr inbounds i8, i8* %0, i64 %vbase.offset.i.i
  %19 = bitcast i8* %add.ptr.i.i to i64*
  store i64 %17, i64* %19, align 8, !tbaa !6
  %20 = getelementptr inbounds %"class.std::basic_ostringstream", %"class.std::basic_ostringstream"* %ret, i64 0, i32 1, i32 0, i32 0
  store i32 (...)** bitcast (i8** getelementptr inbounds ({ [16 x i8*] }, { [16 x i8*] }* @_ZTVSt15basic_stringbufIcSt11char_traitsIcESaIcEE, i64 0, inrange i32 0, i64 2) to i32 (...)**), i32 (...)*** %20, align 8, !tbaa !6
  %_M_p.i.i.i.i.i.i = getelementptr inbounds %"class.std::basic_ostringstream", %"class.std::basic_ostringstream"* %ret, i64 0, i32 1, i32 2, i32 0, i32 0
  %21 = load i8*, i8** %_M_p.i.i.i.i.i.i, align 8, !tbaa !17
  %arrayidx.i.i.i.i.i = getelementptr inbounds i8, i8* %21, i64 -24
  %22 = bitcast i8* %arrayidx.i.i.i.i.i to %"struct.std::basic_string<char, std::char_traits<char>, std::allocator<char> >::_Rep"*
  %23 = getelementptr inbounds %"class.std::ios_base::Init", %"class.std::ios_base::Init"* %ref.tmp.i.i.i.i, i64 0, i32 0
  call void @llvm.lifetime.start.p0i8(i64 1, i8* nonnull %23) #3
  %cmp.i.i.i.i.i = icmp eq i8* %arrayidx.i.i.i.i.i, bitcast ([0 x i64]* @_ZNSs4_Rep20_S_empty_rep_storageE to i8*)
  br i1 %cmp.i.i.i.i.i, label %_ZNSt19basic_ostringstreamIcSt11char_traitsIcESaIcEED1Ev.exit, label %if.then.i.i.i.i.i, !prof !22

if.then.i.i.i.i.i:                                ; preds = %_ZNSsD2Ev.exit
  %_M_refcount.i.i.i.i.i = getelementptr inbounds i8, i8* %21, i64 -8
  %24 = bitcast i8* %_M_refcount.i.i.i.i.i to i32*
  br i1 icmp ne (i8* bitcast (i32 (i32*, void (i8*)*)* @__pthread_key_create to i8*), i8* null), label %if.then.i.i.i.i.i.i, label %if.else.i.i.i.i.i.i

if.then.i.i.i.i.i.i:                              ; preds = %if.then.i.i.i.i.i
  %25 = atomicrmw volatile add i32* %24, i32 -1 acq_rel
  br label %invoke.cont.i.i.i.i.i

if.else.i.i.i.i.i.i:                              ; preds = %if.then.i.i.i.i.i
  %26 = load i32, i32* %24, align 4, !tbaa !23
  %add.i.i.i.i.i.i.i = add nsw i32 %26, -1
  store i32 %add.i.i.i.i.i.i.i, i32* %24, align 4, !tbaa !23
  br label %invoke.cont.i.i.i.i.i

invoke.cont.i.i.i.i.i:                            ; preds = %if.else.i.i.i.i.i.i, %if.then.i.i.i.i.i.i
  %retval.0.i.i.i.i.i.i = phi i32 [ %25, %if.then.i.i.i.i.i.i ], [ %26, %if.else.i.i.i.i.i.i ]
  %cmp3.i.i.i.i.i = icmp slt i32 %retval.0.i.i.i.i.i.i, 1
  br i1 %cmp3.i.i.i.i.i, label %if.then4.i.i.i.i.i, label %_ZNSt19basic_ostringstreamIcSt11char_traitsIcESaIcEED1Ev.exit

if.then4.i.i.i.i.i:                               ; preds = %invoke.cont.i.i.i.i.i
  call void @_ZNSs4_Rep10_M_destroyERKSaIcE(%"struct.std::basic_string<char, std::char_traits<char>, std::allocator<char> >::_Rep"* nonnull %22, %"class.std::ios_base::Init"* nonnull dereferenceable(1) %ref.tmp.i.i.i.i) #3
  br label %_ZNSt19basic_ostringstreamIcSt11char_traitsIcESaIcEED1Ev.exit

_ZNSt19basic_ostringstreamIcSt11char_traitsIcESaIcEED1Ev.exit: ; preds = %if.then4.i.i.i.i.i, %invoke.cont.i.i.i.i.i, %_ZNSsD2Ev.exit
  call void @llvm.lifetime.end.p0i8(i64 1, i8* nonnull %23) #3
  store i32 (...)** bitcast (i8** getelementptr inbounds ({ [16 x i8*] }, { [16 x i8*] }* @_ZTVSt15basic_streambufIcSt11char_traitsIcEE, i64 0, inrange i32 0, i64 2) to i32 (...)**), i32 (...)*** %20, align 8, !tbaa !6
  %_M_buf_locale.i.i.i.i = getelementptr inbounds %"class.std::basic_ostringstream", %"class.std::basic_ostringstream"* %ret, i64 0, i32 1, i32 0, i32 7
  call void @_ZNSt6localeD1Ev(%"class.std::locale"* nonnull %_M_buf_locale.i.i.i.i) #3
  %27 = getelementptr inbounds %"class.std::basic_ostringstream", %"class.std::basic_ostringstream"* %ret, i64 0, i32 2, i32 0
  call void @_ZNSt8ios_baseD2Ev(%"class.std::ios_base"* nonnull %27) #3
  call void @llvm.lifetime.end.p0i8(i64 352, i8* nonnull %0) #3
  ret i8* %9

lpad:                                             ; preds = %invoke.cont13, %invoke.cont11, %invoke.cont8, %invoke.cont6, %invoke.cont4, %invoke.cont, %if.end
  %28 = landingpad { i8*, i32 }
          cleanup
  %29 = extractvalue { i8*, i32 } %28, 0
  %30 = extractvalue { i8*, i32 } %28, 1
  br label %ehcleanup

lpad17:                                           ; preds = %invoke.cont15
  %31 = landingpad { i8*, i32 }
          cleanup
  %32 = extractvalue { i8*, i32 } %31, 0
  %33 = extractvalue { i8*, i32 } %31, 1
  call void @llvm.lifetime.end.p0i8(i64 8, i8* nonnull %8) #3
  br label %ehcleanup

ehcleanup:                                        ; preds = %lpad17, %lpad
  %exn.slot.0 = phi i8* [ %32, %lpad17 ], [ %29, %lpad ]
  %ehselector.slot.0 = phi i32 [ %33, %lpad17 ], [ %30, %lpad ]
  %34 = load i64, i64* bitcast ([4 x i8*]* @_ZTTSt19basic_ostringstreamIcSt11char_traitsIcESaIcEE to i64*), align 8
  %35 = bitcast %"class.std::basic_ostringstream"* %ret to i64*
  store i64 %34, i64* %35, align 8, !tbaa !6
  %36 = load i64, i64* bitcast (i8** getelementptr inbounds ([4 x i8*], [4 x i8*]* @_ZTTSt19basic_ostringstreamIcSt11char_traitsIcESaIcEE, i64 0, i64 3) to i64*), align 8
  %vtable.cast.i.i42 = inttoptr i64 %34 to i8*
  %vbase.offset.ptr.i.i43 = getelementptr i8, i8* %vtable.cast.i.i42, i64 -24
  %37 = bitcast i8* %vbase.offset.ptr.i.i43 to i64*
  %vbase.offset.i.i44 = load i64, i64* %37, align 8
  %add.ptr.i.i45 = getelementptr inbounds i8, i8* %0, i64 %vbase.offset.i.i44
  %38 = bitcast i8* %add.ptr.i.i45 to i64*
  store i64 %36, i64* %38, align 8, !tbaa !6
  %39 = getelementptr inbounds %"class.std::basic_ostringstream", %"class.std::basic_ostringstream"* %ret, i64 0, i32 1, i32 0, i32 0
  store i32 (...)** bitcast (i8** getelementptr inbounds ({ [16 x i8*] }, { [16 x i8*] }* @_ZTVSt15basic_stringbufIcSt11char_traitsIcESaIcEE, i64 0, inrange i32 0, i64 2) to i32 (...)**), i32 (...)*** %39, align 8, !tbaa !6
  %_M_p.i.i.i.i.i.i46 = getelementptr inbounds %"class.std::basic_ostringstream", %"class.std::basic_ostringstream"* %ret, i64 0, i32 1, i32 2, i32 0, i32 0
  %40 = load i8*, i8** %_M_p.i.i.i.i.i.i46, align 8, !tbaa !17
  %arrayidx.i.i.i.i.i47 = getelementptr inbounds i8, i8* %40, i64 -24
  %41 = bitcast i8* %arrayidx.i.i.i.i.i47 to %"struct.std::basic_string<char, std::char_traits<char>, std::allocator<char> >::_Rep"*
  %42 = getelementptr inbounds %"class.std::ios_base::Init", %"class.std::ios_base::Init"* %ref.tmp.i.i.i.i41, i64 0, i32 0
  call void @llvm.lifetime.start.p0i8(i64 1, i8* nonnull %42) #3
  %cmp.i.i.i.i.i48 = icmp eq i8* %arrayidx.i.i.i.i.i47, bitcast ([0 x i64]* @_ZNSs4_Rep20_S_empty_rep_storageE to i8*)
  br i1 %cmp.i.i.i.i.i48, label %_ZNSt19basic_ostringstreamIcSt11char_traitsIcESaIcEED1Ev.exit59, label %if.then.i.i.i.i.i50, !prof !22

if.then.i.i.i.i.i50:                              ; preds = %ehcleanup
  %_M_refcount.i.i.i.i.i49 = getelementptr inbounds i8, i8* %40, i64 -8
  %43 = bitcast i8* %_M_refcount.i.i.i.i.i49 to i32*
  br i1 icmp ne (i8* bitcast (i32 (i32*, void (i8*)*)* @__pthread_key_create to i8*), i8* null), label %if.then.i.i.i.i.i.i51, label %if.else.i.i.i.i.i.i53

if.then.i.i.i.i.i.i51:                            ; preds = %if.then.i.i.i.i.i50
  %44 = atomicrmw volatile add i32* %43, i32 -1 acq_rel
  br label %invoke.cont.i.i.i.i.i56

if.else.i.i.i.i.i.i53:                            ; preds = %if.then.i.i.i.i.i50
  %45 = load i32, i32* %43, align 4, !tbaa !23
  %add.i.i.i.i.i.i.i52 = add nsw i32 %45, -1
  store i32 %add.i.i.i.i.i.i.i52, i32* %43, align 4, !tbaa !23
  br label %invoke.cont.i.i.i.i.i56

invoke.cont.i.i.i.i.i56:                          ; preds = %if.else.i.i.i.i.i.i53, %if.then.i.i.i.i.i.i51
  %retval.0.i.i.i.i.i.i54 = phi i32 [ %44, %if.then.i.i.i.i.i.i51 ], [ %45, %if.else.i.i.i.i.i.i53 ]
  %cmp3.i.i.i.i.i55 = icmp slt i32 %retval.0.i.i.i.i.i.i54, 1
  br i1 %cmp3.i.i.i.i.i55, label %if.then4.i.i.i.i.i57, label %_ZNSt19basic_ostringstreamIcSt11char_traitsIcESaIcEED1Ev.exit59

if.then4.i.i.i.i.i57:                             ; preds = %invoke.cont.i.i.i.i.i56
  call void @_ZNSs4_Rep10_M_destroyERKSaIcE(%"struct.std::basic_string<char, std::char_traits<char>, std::allocator<char> >::_Rep"* nonnull %41, %"class.std::ios_base::Init"* nonnull dereferenceable(1) %ref.tmp.i.i.i.i41) #3
  br label %_ZNSt19basic_ostringstreamIcSt11char_traitsIcESaIcEED1Ev.exit59

_ZNSt19basic_ostringstreamIcSt11char_traitsIcESaIcEED1Ev.exit59: ; preds = %if.then4.i.i.i.i.i57, %invoke.cont.i.i.i.i.i56, %ehcleanup
  call void @llvm.lifetime.end.p0i8(i64 1, i8* nonnull %42) #3
  store i32 (...)** bitcast (i8** getelementptr inbounds ({ [16 x i8*] }, { [16 x i8*] }* @_ZTVSt15basic_streambufIcSt11char_traitsIcEE, i64 0, inrange i32 0, i64 2) to i32 (...)**), i32 (...)*** %39, align 8, !tbaa !6
  %_M_buf_locale.i.i.i.i58 = getelementptr inbounds %"class.std::basic_ostringstream", %"class.std::basic_ostringstream"* %ret, i64 0, i32 1, i32 0, i32 7
  call void @_ZNSt6localeD1Ev(%"class.std::locale"* nonnull %_M_buf_locale.i.i.i.i58) #3
  %46 = getelementptr inbounds %"class.std::basic_ostringstream", %"class.std::basic_ostringstream"* %ret, i64 0, i32 2, i32 0
  call void @_ZNSt8ios_baseD2Ev(%"class.std::ios_base"* nonnull %46) #3
  call void @llvm.lifetime.end.p0i8(i64 352, i8* nonnull %0) #3
  %lpad.val = insertvalue { i8*, i32 } undef, i8* %exn.slot.0, 0
  %lpad.val21 = insertvalue { i8*, i32 } %lpad.val, i32 %ehselector.slot.0, 1
  resume { i8*, i32 } %lpad.val21
}

; Function Attrs: nounwind
declare dso_local i32 @omp_get_thread_num() local_unnamed_addr #2

; Function Attrs: inlinehint uwtable
declare dso_local dereferenceable(272) %"class.std::basic_ostream"* @_ZStlsISt11char_traitsIcEERSt13basic_ostreamIcT_ES5_PKc(%"class.std::basic_ostream"* dereferenceable(272), i8*) local_unnamed_addr #7

; Function Attrs: noreturn nounwind
declare dso_local void @__assert_fail(i8*, i8*, i32, i8*) local_unnamed_addr #8

; Function Attrs: argmemonly nounwind
declare void @llvm.lifetime.start.p0i8(i64 immarg, i8* nocapture) #9

; Function Attrs: uwtable
declare dso_local void @_ZNSt19basic_ostringstreamIcSt11char_traitsIcESaIcEEC1ESt13_Ios_Openmode(%"class.std::basic_ostringstream"*, i32) unnamed_addr #0 align 2

declare dso_local dereferenceable(272) %"class.std::basic_ostream"* @_ZSt16__ostream_insertIcSt11char_traitsIcEERSt13basic_ostreamIT_T0_ES6_PKS3_l(%"class.std::basic_ostream"* dereferenceable(272), i8*, i64) local_unnamed_addr #1

declare dso_local dereferenceable(272) %"class.std::basic_ostream"* @_ZNSolsEi(%"class.std::basic_ostream"*, i32) local_unnamed_addr #1

; Function Attrs: uwtable
declare dso_local void @_ZNKSt15basic_stringbufIcSt11char_traitsIcESaIcEE3strEv(%"class.std::basic_string"* noalias sret, %"class.std::basic_stringbuf"*) local_unnamed_addr #0 align 2

; Function Attrs: nounwind
declare extern_weak dso_local i32 @__pthread_key_create(i32*, void (i8*)*) #2

; Function Attrs: nounwind
declare dso_local void @_ZNSs4_Rep10_M_destroyERKSaIcE(%"struct.std::basic_string<char, std::char_traits<char>, std::allocator<char> >::_Rep"*, %"class.std::ios_base::Init"* dereferenceable(1)) local_unnamed_addr #2

; Function Attrs: argmemonly nounwind
declare void @llvm.lifetime.end.p0i8(i64 immarg, i8* nocapture) #9

; Function Attrs: nounwind
declare dso_local void @_ZNSt6localeD1Ev(%"class.std::locale"*) unnamed_addr #2

; Function Attrs: nounwind
declare dso_local void @_ZNSt8ios_baseD2Ev(%"class.std::ios_base"*) unnamed_addr #2

; Function Attrs: noinline uwtable
define dso_local void @printBranch(i8* %name, i8* %kernel_type, i8* %run_dir, i32 %cond, i8* %n1, i8* %n2) #6 personality i8* bitcast (i32 (...)* @__gxx_personality_v0 to i8*) {
entry:
  %ref.tmp.i107 = alloca %"class.std::ios_base::Init", align 1
  %ref.tmp.i93 = alloca %"class.std::ios_base::Init", align 1
  %ref.tmp.i76 = alloca %"class.std::ios_base::Init", align 1
  %ref.tmp.i62 = alloca %"class.std::ios_base::Init", align 1
  %ref.tmp.i48 = alloca %"class.std::ios_base::Init", align 1
  %ref.tmp.i = alloca %"class.std::ios_base::Init", align 1
  %agg.tmp = alloca %"class.std::basic_string", align 8
  %ref.tmp = alloca %"class.std::ios_base::Init", align 1
  %agg.tmp5 = alloca %"class.std::basic_string", align 8
  %ref.tmp6 = alloca %"class.std::ios_base::Init", align 1
  %agg.tmp9 = alloca %"class.std::basic_string", align 8
  %ref.tmp10 = alloca %"class.std::ios_base::Init", align 1
  %call = tail call i32 @omp_get_thread_num() #3
  %idxprom = sext i32 %call to i64
  %_M_file.i.i = getelementptr inbounds [1024 x %"class.std::basic_ofstream"], [1024 x %"class.std::basic_ofstream"]* @f1, i64 0, i64 %idxprom, i32 1, i32 2
  %call.i.i = tail call zeroext i1 @_ZNKSt12__basic_fileIcE7is_openEv(%"class.std::__basic_file"* nonnull %_M_file.i.i) #22
  br i1 %call.i.i, label %if.end, label %if.then

if.then:                                          ; preds = %entry
  %call2 = tail call i32 @omp_get_thread_num() #3
  %idxprom3 = sext i32 %call2 to i64
  %arrayidx4 = getelementptr inbounds [1024 x %"class.std::basic_ofstream"], [1024 x %"class.std::basic_ofstream"]* @f1, i64 0, i64 %idxprom3
  %0 = getelementptr inbounds %"class.std::ios_base::Init", %"class.std::ios_base::Init"* %ref.tmp, i64 0, i32 0
  call void @llvm.lifetime.start.p0i8(i64 1, i8* nonnull %0) #3
  invoke void @_ZNSsC1EPKcRKSaIcE(%"class.std::basic_string"* nonnull %agg.tmp, i8* %run_dir, %"class.std::ios_base::Init"* nonnull dereferenceable(1) %ref.tmp)
          to label %invoke.cont unwind label %lpad

invoke.cont:                                      ; preds = %if.then
  %1 = getelementptr inbounds %"class.std::ios_base::Init", %"class.std::ios_base::Init"* %ref.tmp6, i64 0, i32 0
  call void @llvm.lifetime.start.p0i8(i64 1, i8* nonnull %1) #3
  invoke void @_ZNSsC1EPKcRKSaIcE(%"class.std::basic_string"* nonnull %agg.tmp5, i8* %kernel_type, %"class.std::ios_base::Init"* nonnull dereferenceable(1) %ref.tmp6)
          to label %invoke.cont8 unwind label %lpad7

invoke.cont8:                                     ; preds = %invoke.cont
  %2 = getelementptr inbounds %"class.std::ios_base::Init", %"class.std::ios_base::Init"* %ref.tmp10, i64 0, i32 0
  call void @llvm.lifetime.start.p0i8(i64 1, i8* nonnull %2) #3
  invoke void @_ZNSsC1EPKcRKSaIcE(%"class.std::basic_string"* nonnull %agg.tmp9, i8* getelementptr inbounds ([9 x i8], [9 x i8]* @.str.7, i64 0, i64 0), %"class.std::ios_base::Init"* nonnull dereferenceable(1) %ref.tmp10)
          to label %invoke.cont12 unwind label %lpad11

invoke.cont12:                                    ; preds = %invoke.cont8
  %call15 = invoke i8* @_Z12get_dir_nameSsSsSs(%"class.std::basic_string"* nonnull %agg.tmp, %"class.std::basic_string"* nonnull %agg.tmp5, %"class.std::basic_string"* nonnull %agg.tmp9)
          to label %invoke.cont14 unwind label %lpad13

invoke.cont14:                                    ; preds = %invoke.cont12
  %_M_filebuf.i = getelementptr inbounds [1024 x %"class.std::basic_ofstream"], [1024 x %"class.std::basic_ofstream"]* @f1, i64 0, i64 %idxprom3, i32 1
  %call2.i46 = invoke %"class.std::basic_filebuf"* @_ZNSt13basic_filebufIcSt11char_traitsIcEE4openEPKcSt13_Ios_Openmode(%"class.std::basic_filebuf"* nonnull %_M_filebuf.i, i8* %call15, i32 17)
          to label %call2.i.noexc unwind label %lpad13

call2.i.noexc:                                    ; preds = %invoke.cont14
  %tobool.i41 = icmp eq %"class.std::basic_filebuf"* %call2.i46, null
  %3 = bitcast %"class.std::basic_ofstream"* %arrayidx4 to i8**
  %vtable3.i = load i8*, i8** %3, align 16, !tbaa !6
  %vbase.offset.ptr4.i = getelementptr i8, i8* %vtable3.i, i64 -24
  %4 = bitcast i8* %vbase.offset.ptr4.i to i64*
  %vbase.offset5.i = load i64, i64* %4, align 8
  %5 = bitcast %"class.std::basic_ofstream"* %arrayidx4 to i8*
  %add.ptr6.i = getelementptr inbounds i8, i8* %5, i64 %vbase.offset5.i
  %6 = bitcast i8* %add.ptr6.i to %"class.std::basic_ios"*
  br i1 %tobool.i41, label %if.then.i44, label %if.else.i45

if.then.i44:                                      ; preds = %call2.i.noexc
  %_M_streambuf_state.i.i.i42 = getelementptr inbounds i8, i8* %add.ptr6.i, i64 32
  %7 = bitcast i8* %_M_streambuf_state.i.i.i42 to i32*
  %8 = load i32, i32* %7, align 8, !tbaa !8
  %or.i.i.i43 = or i32 %8, 4
  invoke void @_ZNSt9basic_iosIcSt11char_traitsIcEE5clearESt12_Ios_Iostate(%"class.std::basic_ios"* nonnull %6, i32 %or.i.i.i43)
          to label %invoke.cont18 unwind label %lpad13

if.else.i45:                                      ; preds = %call2.i.noexc
  invoke void @_ZNSt9basic_iosIcSt11char_traitsIcEE5clearESt12_Ios_Iostate(%"class.std::basic_ios"* nonnull %6, i32 0)
          to label %invoke.cont18 unwind label %lpad13

invoke.cont18:                                    ; preds = %if.else.i45, %if.then.i44
  %_M_p.i.i.i = getelementptr inbounds %"class.std::basic_string", %"class.std::basic_string"* %agg.tmp9, i64 0, i32 0, i32 0
  %9 = load i8*, i8** %_M_p.i.i.i, align 8, !tbaa !17
  %arrayidx.i.i = getelementptr inbounds i8, i8* %9, i64 -24
  %10 = bitcast i8* %arrayidx.i.i to %"struct.std::basic_string<char, std::char_traits<char>, std::allocator<char> >::_Rep"*
  %11 = getelementptr inbounds %"class.std::ios_base::Init", %"class.std::ios_base::Init"* %ref.tmp.i, i64 0, i32 0
  call void @llvm.lifetime.start.p0i8(i64 1, i8* nonnull %11) #3
  %cmp.i.i = icmp eq i8* %arrayidx.i.i, bitcast ([0 x i64]* @_ZNSs4_Rep20_S_empty_rep_storageE to i8*)
  br i1 %cmp.i.i, label %_ZNSsD2Ev.exit, label %if.then.i.i, !prof !22

if.then.i.i:                                      ; preds = %invoke.cont18
  %_M_refcount.i.i = getelementptr inbounds i8, i8* %9, i64 -8
  %12 = bitcast i8* %_M_refcount.i.i to i32*
  br i1 icmp ne (i8* bitcast (i32 (i32*, void (i8*)*)* @__pthread_key_create to i8*), i8* null), label %if.then.i.i.i, label %if.else.i.i.i

if.then.i.i.i:                                    ; preds = %if.then.i.i
  %13 = atomicrmw volatile add i32* %12, i32 -1 acq_rel
  br label %invoke.cont.i.i

if.else.i.i.i:                                    ; preds = %if.then.i.i
  %14 = load i32, i32* %12, align 4, !tbaa !23
  %add.i.i.i.i = add nsw i32 %14, -1
  store i32 %add.i.i.i.i, i32* %12, align 4, !tbaa !23
  br label %invoke.cont.i.i

invoke.cont.i.i:                                  ; preds = %if.else.i.i.i, %if.then.i.i.i
  %retval.0.i.i.i = phi i32 [ %13, %if.then.i.i.i ], [ %14, %if.else.i.i.i ]
  %cmp3.i.i = icmp slt i32 %retval.0.i.i.i, 1
  br i1 %cmp3.i.i, label %if.then4.i.i, label %_ZNSsD2Ev.exit

if.then4.i.i:                                     ; preds = %invoke.cont.i.i
  call void @_ZNSs4_Rep10_M_destroyERKSaIcE(%"struct.std::basic_string<char, std::char_traits<char>, std::allocator<char> >::_Rep"* nonnull %10, %"class.std::ios_base::Init"* nonnull dereferenceable(1) %ref.tmp.i) #3
  br label %_ZNSsD2Ev.exit

_ZNSsD2Ev.exit:                                   ; preds = %if.then4.i.i, %invoke.cont.i.i, %invoke.cont18
  call void @llvm.lifetime.end.p0i8(i64 1, i8* nonnull %11) #3
  call void @llvm.lifetime.end.p0i8(i64 1, i8* nonnull %2) #3
  %_M_p.i.i.i49 = getelementptr inbounds %"class.std::basic_string", %"class.std::basic_string"* %agg.tmp5, i64 0, i32 0, i32 0
  %15 = load i8*, i8** %_M_p.i.i.i49, align 8, !tbaa !17
  %arrayidx.i.i50 = getelementptr inbounds i8, i8* %15, i64 -24
  %16 = bitcast i8* %arrayidx.i.i50 to %"struct.std::basic_string<char, std::char_traits<char>, std::allocator<char> >::_Rep"*
  %17 = getelementptr inbounds %"class.std::ios_base::Init", %"class.std::ios_base::Init"* %ref.tmp.i48, i64 0, i32 0
  call void @llvm.lifetime.start.p0i8(i64 1, i8* nonnull %17) #3
  %cmp.i.i51 = icmp eq i8* %arrayidx.i.i50, bitcast ([0 x i64]* @_ZNSs4_Rep20_S_empty_rep_storageE to i8*)
  br i1 %cmp.i.i51, label %_ZNSsD2Ev.exit61, label %if.then.i.i53, !prof !22

if.then.i.i53:                                    ; preds = %_ZNSsD2Ev.exit
  %_M_refcount.i.i52 = getelementptr inbounds i8, i8* %15, i64 -8
  %18 = bitcast i8* %_M_refcount.i.i52 to i32*
  br i1 icmp ne (i8* bitcast (i32 (i32*, void (i8*)*)* @__pthread_key_create to i8*), i8* null), label %if.then.i.i.i54, label %if.else.i.i.i56

if.then.i.i.i54:                                  ; preds = %if.then.i.i53
  %19 = atomicrmw volatile add i32* %18, i32 -1 acq_rel
  br label %invoke.cont.i.i59

if.else.i.i.i56:                                  ; preds = %if.then.i.i53
  %20 = load i32, i32* %18, align 4, !tbaa !23
  %add.i.i.i.i55 = add nsw i32 %20, -1
  store i32 %add.i.i.i.i55, i32* %18, align 4, !tbaa !23
  br label %invoke.cont.i.i59

invoke.cont.i.i59:                                ; preds = %if.else.i.i.i56, %if.then.i.i.i54
  %retval.0.i.i.i57 = phi i32 [ %19, %if.then.i.i.i54 ], [ %20, %if.else.i.i.i56 ]
  %cmp3.i.i58 = icmp slt i32 %retval.0.i.i.i57, 1
  br i1 %cmp3.i.i58, label %if.then4.i.i60, label %_ZNSsD2Ev.exit61

if.then4.i.i60:                                   ; preds = %invoke.cont.i.i59
  call void @_ZNSs4_Rep10_M_destroyERKSaIcE(%"struct.std::basic_string<char, std::char_traits<char>, std::allocator<char> >::_Rep"* nonnull %16, %"class.std::ios_base::Init"* nonnull dereferenceable(1) %ref.tmp.i48) #3
  br label %_ZNSsD2Ev.exit61

_ZNSsD2Ev.exit61:                                 ; preds = %if.then4.i.i60, %invoke.cont.i.i59, %_ZNSsD2Ev.exit
  call void @llvm.lifetime.end.p0i8(i64 1, i8* nonnull %17) #3
  call void @llvm.lifetime.end.p0i8(i64 1, i8* nonnull %1) #3
  %_M_p.i.i.i63 = getelementptr inbounds %"class.std::basic_string", %"class.std::basic_string"* %agg.tmp, i64 0, i32 0, i32 0
  %21 = load i8*, i8** %_M_p.i.i.i63, align 8, !tbaa !17
  %arrayidx.i.i64 = getelementptr inbounds i8, i8* %21, i64 -24
  %22 = bitcast i8* %arrayidx.i.i64 to %"struct.std::basic_string<char, std::char_traits<char>, std::allocator<char> >::_Rep"*
  %23 = getelementptr inbounds %"class.std::ios_base::Init", %"class.std::ios_base::Init"* %ref.tmp.i62, i64 0, i32 0
  call void @llvm.lifetime.start.p0i8(i64 1, i8* nonnull %23) #3
  %cmp.i.i65 = icmp eq i8* %arrayidx.i.i64, bitcast ([0 x i64]* @_ZNSs4_Rep20_S_empty_rep_storageE to i8*)
  br i1 %cmp.i.i65, label %_ZNSsD2Ev.exit75, label %if.then.i.i67, !prof !22

if.then.i.i67:                                    ; preds = %_ZNSsD2Ev.exit61
  %_M_refcount.i.i66 = getelementptr inbounds i8, i8* %21, i64 -8
  %24 = bitcast i8* %_M_refcount.i.i66 to i32*
  br i1 icmp ne (i8* bitcast (i32 (i32*, void (i8*)*)* @__pthread_key_create to i8*), i8* null), label %if.then.i.i.i68, label %if.else.i.i.i70

if.then.i.i.i68:                                  ; preds = %if.then.i.i67
  %25 = atomicrmw volatile add i32* %24, i32 -1 acq_rel
  br label %invoke.cont.i.i73

if.else.i.i.i70:                                  ; preds = %if.then.i.i67
  %26 = load i32, i32* %24, align 4, !tbaa !23
  %add.i.i.i.i69 = add nsw i32 %26, -1
  store i32 %add.i.i.i.i69, i32* %24, align 4, !tbaa !23
  br label %invoke.cont.i.i73

invoke.cont.i.i73:                                ; preds = %if.else.i.i.i70, %if.then.i.i.i68
  %retval.0.i.i.i71 = phi i32 [ %25, %if.then.i.i.i68 ], [ %26, %if.else.i.i.i70 ]
  %cmp3.i.i72 = icmp slt i32 %retval.0.i.i.i71, 1
  br i1 %cmp3.i.i72, label %if.then4.i.i74, label %_ZNSsD2Ev.exit75

if.then4.i.i74:                                   ; preds = %invoke.cont.i.i73
  call void @_ZNSs4_Rep10_M_destroyERKSaIcE(%"struct.std::basic_string<char, std::char_traits<char>, std::allocator<char> >::_Rep"* nonnull %22, %"class.std::ios_base::Init"* nonnull dereferenceable(1) %ref.tmp.i62) #3
  br label %_ZNSsD2Ev.exit75

_ZNSsD2Ev.exit75:                                 ; preds = %if.then4.i.i74, %invoke.cont.i.i73, %_ZNSsD2Ev.exit61
  call void @llvm.lifetime.end.p0i8(i64 1, i8* nonnull %23) #3
  call void @llvm.lifetime.end.p0i8(i64 1, i8* nonnull %0) #3
  br label %if.end

lpad:                                             ; preds = %if.then
  %27 = landingpad { i8*, i32 }
          cleanup
  %28 = extractvalue { i8*, i32 } %27, 0
  %29 = extractvalue { i8*, i32 } %27, 1
  br label %ehcleanup24

lpad7:                                            ; preds = %invoke.cont
  %30 = landingpad { i8*, i32 }
          cleanup
  %31 = extractvalue { i8*, i32 } %30, 0
  %32 = extractvalue { i8*, i32 } %30, 1
  br label %ehcleanup21

lpad11:                                           ; preds = %invoke.cont8
  %33 = landingpad { i8*, i32 }
          cleanup
  %34 = extractvalue { i8*, i32 } %33, 0
  %35 = extractvalue { i8*, i32 } %33, 1
  br label %ehcleanup

lpad13:                                           ; preds = %if.else.i45, %if.then.i44, %invoke.cont14, %invoke.cont12
  %36 = landingpad { i8*, i32 }
          cleanup
  %37 = extractvalue { i8*, i32 } %36, 0
  %38 = extractvalue { i8*, i32 } %36, 1
  %_M_p.i.i.i77 = getelementptr inbounds %"class.std::basic_string", %"class.std::basic_string"* %agg.tmp9, i64 0, i32 0, i32 0
  %39 = load i8*, i8** %_M_p.i.i.i77, align 8, !tbaa !17
  %arrayidx.i.i78 = getelementptr inbounds i8, i8* %39, i64 -24
  %40 = bitcast i8* %arrayidx.i.i78 to %"struct.std::basic_string<char, std::char_traits<char>, std::allocator<char> >::_Rep"*
  %41 = getelementptr inbounds %"class.std::ios_base::Init", %"class.std::ios_base::Init"* %ref.tmp.i76, i64 0, i32 0
  call void @llvm.lifetime.start.p0i8(i64 1, i8* nonnull %41) #3
  %cmp.i.i79 = icmp eq i8* %arrayidx.i.i78, bitcast ([0 x i64]* @_ZNSs4_Rep20_S_empty_rep_storageE to i8*)
  br i1 %cmp.i.i79, label %_ZNSsD2Ev.exit89, label %if.then.i.i81, !prof !22

if.then.i.i81:                                    ; preds = %lpad13
  %_M_refcount.i.i80 = getelementptr inbounds i8, i8* %39, i64 -8
  %42 = bitcast i8* %_M_refcount.i.i80 to i32*
  br i1 icmp ne (i8* bitcast (i32 (i32*, void (i8*)*)* @__pthread_key_create to i8*), i8* null), label %if.then.i.i.i82, label %if.else.i.i.i84

if.then.i.i.i82:                                  ; preds = %if.then.i.i81
  %43 = atomicrmw volatile add i32* %42, i32 -1 acq_rel
  br label %invoke.cont.i.i87

if.else.i.i.i84:                                  ; preds = %if.then.i.i81
  %44 = load i32, i32* %42, align 4, !tbaa !23
  %add.i.i.i.i83 = add nsw i32 %44, -1
  store i32 %add.i.i.i.i83, i32* %42, align 4, !tbaa !23
  br label %invoke.cont.i.i87

invoke.cont.i.i87:                                ; preds = %if.else.i.i.i84, %if.then.i.i.i82
  %retval.0.i.i.i85 = phi i32 [ %43, %if.then.i.i.i82 ], [ %44, %if.else.i.i.i84 ]
  %cmp3.i.i86 = icmp slt i32 %retval.0.i.i.i85, 1
  br i1 %cmp3.i.i86, label %if.then4.i.i88, label %_ZNSsD2Ev.exit89

if.then4.i.i88:                                   ; preds = %invoke.cont.i.i87
  call void @_ZNSs4_Rep10_M_destroyERKSaIcE(%"struct.std::basic_string<char, std::char_traits<char>, std::allocator<char> >::_Rep"* nonnull %40, %"class.std::ios_base::Init"* nonnull dereferenceable(1) %ref.tmp.i76) #3
  br label %_ZNSsD2Ev.exit89

_ZNSsD2Ev.exit89:                                 ; preds = %if.then4.i.i88, %invoke.cont.i.i87, %lpad13
  call void @llvm.lifetime.end.p0i8(i64 1, i8* nonnull %41) #3
  br label %ehcleanup

ehcleanup:                                        ; preds = %_ZNSsD2Ev.exit89, %lpad11
  %exn.slot.0 = phi i8* [ %37, %_ZNSsD2Ev.exit89 ], [ %34, %lpad11 ]
  %ehselector.slot.0 = phi i32 [ %38, %_ZNSsD2Ev.exit89 ], [ %35, %lpad11 ]
  call void @llvm.lifetime.end.p0i8(i64 1, i8* nonnull %2) #3
  %_M_p.i.i.i94 = getelementptr inbounds %"class.std::basic_string", %"class.std::basic_string"* %agg.tmp5, i64 0, i32 0, i32 0
  %45 = load i8*, i8** %_M_p.i.i.i94, align 8, !tbaa !17
  %arrayidx.i.i95 = getelementptr inbounds i8, i8* %45, i64 -24
  %46 = bitcast i8* %arrayidx.i.i95 to %"struct.std::basic_string<char, std::char_traits<char>, std::allocator<char> >::_Rep"*
  %47 = getelementptr inbounds %"class.std::ios_base::Init", %"class.std::ios_base::Init"* %ref.tmp.i93, i64 0, i32 0
  call void @llvm.lifetime.start.p0i8(i64 1, i8* nonnull %47) #3
  %cmp.i.i96 = icmp eq i8* %arrayidx.i.i95, bitcast ([0 x i64]* @_ZNSs4_Rep20_S_empty_rep_storageE to i8*)
  br i1 %cmp.i.i96, label %_ZNSsD2Ev.exit106, label %if.then.i.i98, !prof !22

if.then.i.i98:                                    ; preds = %ehcleanup
  %_M_refcount.i.i97 = getelementptr inbounds i8, i8* %45, i64 -8
  %48 = bitcast i8* %_M_refcount.i.i97 to i32*
  br i1 icmp ne (i8* bitcast (i32 (i32*, void (i8*)*)* @__pthread_key_create to i8*), i8* null), label %if.then.i.i.i99, label %if.else.i.i.i101

if.then.i.i.i99:                                  ; preds = %if.then.i.i98
  %49 = atomicrmw volatile add i32* %48, i32 -1 acq_rel
  br label %invoke.cont.i.i104

if.else.i.i.i101:                                 ; preds = %if.then.i.i98
  %50 = load i32, i32* %48, align 4, !tbaa !23
  %add.i.i.i.i100 = add nsw i32 %50, -1
  store i32 %add.i.i.i.i100, i32* %48, align 4, !tbaa !23
  br label %invoke.cont.i.i104

invoke.cont.i.i104:                               ; preds = %if.else.i.i.i101, %if.then.i.i.i99
  %retval.0.i.i.i102 = phi i32 [ %49, %if.then.i.i.i99 ], [ %50, %if.else.i.i.i101 ]
  %cmp3.i.i103 = icmp slt i32 %retval.0.i.i.i102, 1
  br i1 %cmp3.i.i103, label %if.then4.i.i105, label %_ZNSsD2Ev.exit106

if.then4.i.i105:                                  ; preds = %invoke.cont.i.i104
  call void @_ZNSs4_Rep10_M_destroyERKSaIcE(%"struct.std::basic_string<char, std::char_traits<char>, std::allocator<char> >::_Rep"* nonnull %46, %"class.std::ios_base::Init"* nonnull dereferenceable(1) %ref.tmp.i93) #3
  br label %_ZNSsD2Ev.exit106

_ZNSsD2Ev.exit106:                                ; preds = %if.then4.i.i105, %invoke.cont.i.i104, %ehcleanup
  call void @llvm.lifetime.end.p0i8(i64 1, i8* nonnull %47) #3
  br label %ehcleanup21

ehcleanup21:                                      ; preds = %_ZNSsD2Ev.exit106, %lpad7
  %exn.slot.1 = phi i8* [ %exn.slot.0, %_ZNSsD2Ev.exit106 ], [ %31, %lpad7 ]
  %ehselector.slot.1 = phi i32 [ %ehselector.slot.0, %_ZNSsD2Ev.exit106 ], [ %32, %lpad7 ]
  call void @llvm.lifetime.end.p0i8(i64 1, i8* nonnull %1) #3
  %_M_p.i.i.i108 = getelementptr inbounds %"class.std::basic_string", %"class.std::basic_string"* %agg.tmp, i64 0, i32 0, i32 0
  %51 = load i8*, i8** %_M_p.i.i.i108, align 8, !tbaa !17
  %arrayidx.i.i109 = getelementptr inbounds i8, i8* %51, i64 -24
  %52 = bitcast i8* %arrayidx.i.i109 to %"struct.std::basic_string<char, std::char_traits<char>, std::allocator<char> >::_Rep"*
  %53 = getelementptr inbounds %"class.std::ios_base::Init", %"class.std::ios_base::Init"* %ref.tmp.i107, i64 0, i32 0
  call void @llvm.lifetime.start.p0i8(i64 1, i8* nonnull %53) #3
  %cmp.i.i110 = icmp eq i8* %arrayidx.i.i109, bitcast ([0 x i64]* @_ZNSs4_Rep20_S_empty_rep_storageE to i8*)
  br i1 %cmp.i.i110, label %_ZNSsD2Ev.exit120, label %if.then.i.i112, !prof !22

if.then.i.i112:                                   ; preds = %ehcleanup21
  %_M_refcount.i.i111 = getelementptr inbounds i8, i8* %51, i64 -8
  %54 = bitcast i8* %_M_refcount.i.i111 to i32*
  br i1 icmp ne (i8* bitcast (i32 (i32*, void (i8*)*)* @__pthread_key_create to i8*), i8* null), label %if.then.i.i.i113, label %if.else.i.i.i115

if.then.i.i.i113:                                 ; preds = %if.then.i.i112
  %55 = atomicrmw volatile add i32* %54, i32 -1 acq_rel
  br label %invoke.cont.i.i118

if.else.i.i.i115:                                 ; preds = %if.then.i.i112
  %56 = load i32, i32* %54, align 4, !tbaa !23
  %add.i.i.i.i114 = add nsw i32 %56, -1
  store i32 %add.i.i.i.i114, i32* %54, align 4, !tbaa !23
  br label %invoke.cont.i.i118

invoke.cont.i.i118:                               ; preds = %if.else.i.i.i115, %if.then.i.i.i113
  %retval.0.i.i.i116 = phi i32 [ %55, %if.then.i.i.i113 ], [ %56, %if.else.i.i.i115 ]
  %cmp3.i.i117 = icmp slt i32 %retval.0.i.i.i116, 1
  br i1 %cmp3.i.i117, label %if.then4.i.i119, label %_ZNSsD2Ev.exit120

if.then4.i.i119:                                  ; preds = %invoke.cont.i.i118
  call void @_ZNSs4_Rep10_M_destroyERKSaIcE(%"struct.std::basic_string<char, std::char_traits<char>, std::allocator<char> >::_Rep"* nonnull %52, %"class.std::ios_base::Init"* nonnull dereferenceable(1) %ref.tmp.i107) #3
  br label %_ZNSsD2Ev.exit120

_ZNSsD2Ev.exit120:                                ; preds = %if.then4.i.i119, %invoke.cont.i.i118, %ehcleanup21
  call void @llvm.lifetime.end.p0i8(i64 1, i8* nonnull %53) #3
  br label %ehcleanup24

ehcleanup24:                                      ; preds = %_ZNSsD2Ev.exit120, %lpad
  %exn.slot.2 = phi i8* [ %exn.slot.1, %_ZNSsD2Ev.exit120 ], [ %28, %lpad ]
  %ehselector.slot.2 = phi i32 [ %ehselector.slot.1, %_ZNSsD2Ev.exit120 ], [ %29, %lpad ]
  call void @llvm.lifetime.end.p0i8(i64 1, i8* nonnull %0) #3
  %lpad.val = insertvalue { i8*, i32 } undef, i8* %exn.slot.2, 0
  %lpad.val36 = insertvalue { i8*, i32 } %lpad.val, i32 %ehselector.slot.2, 1
  resume { i8*, i32 } %lpad.val36

if.end:                                           ; preds = %_ZNSsD2Ev.exit75, %entry
  %cmp = icmp eq i32 %cond, 0
  %n1.n2 = select i1 %cmp, i8* %n1, i8* %n2
  %call28 = call i32 @omp_get_thread_num() #3
  %idxprom29 = sext i32 %call28 to i64
  %arrayidx30 = getelementptr inbounds [1024 x %"class.std::basic_ofstream"], [1024 x %"class.std::basic_ofstream"]* @f1, i64 0, i64 %idxprom29
  %57 = bitcast %"class.std::basic_ofstream"* %arrayidx30 to %"class.std::basic_ostream"*
  %call1.i134 = call dereferenceable(272) %"class.std::basic_ostream"* @_ZSt16__ostream_insertIcSt11char_traitsIcEERSt13basic_ostreamIT_T0_ES6_PKS3_l(%"class.std::basic_ostream"* nonnull dereferenceable(272) %57, i8* nonnull getelementptr inbounds ([3 x i8], [3 x i8]* @.str.8, i64 0, i64 0), i64 2)
  %tobool.i121 = icmp eq i8* %name, null
  br i1 %tobool.i121, label %if.then.i128, label %if.else.i131

if.then.i128:                                     ; preds = %if.end
  %58 = bitcast %"class.std::basic_ofstream"* %arrayidx30 to i8**
  %vtable.i122 = load i8*, i8** %58, align 16, !tbaa !6
  %vbase.offset.ptr.i123 = getelementptr i8, i8* %vtable.i122, i64 -24
  %59 = bitcast i8* %vbase.offset.ptr.i123 to i64*
  %vbase.offset.i124 = load i64, i64* %59, align 8
  %60 = bitcast %"class.std::basic_ofstream"* %arrayidx30 to i8*
  %add.ptr.i125 = getelementptr inbounds i8, i8* %60, i64 %vbase.offset.i124
  %61 = bitcast i8* %add.ptr.i125 to %"class.std::basic_ios"*
  %_M_streambuf_state.i.i.i126 = getelementptr inbounds i8, i8* %add.ptr.i125, i64 32
  %62 = bitcast i8* %_M_streambuf_state.i.i.i126 to i32*
  %63 = load i32, i32* %62, align 8, !tbaa !8
  %or.i.i.i127 = or i32 %63, 1
  call void @_ZNSt9basic_iosIcSt11char_traitsIcEE5clearESt12_Ios_Iostate(%"class.std::basic_ios"* nonnull %61, i32 %or.i.i.i127)
  br label %_ZStlsISt11char_traitsIcEERSt13basic_ostreamIcT_ES5_PKc.exit132

if.else.i131:                                     ; preds = %if.end
  %call.i.i129 = call i64 @strlen(i8* nonnull %name) #3
  %call1.i130 = call dereferenceable(272) %"class.std::basic_ostream"* @_ZSt16__ostream_insertIcSt11char_traitsIcEERSt13basic_ostreamIT_T0_ES6_PKS3_l(%"class.std::basic_ostream"* nonnull dereferenceable(272) %57, i8* nonnull %name, i64 %call.i.i129)
  br label %_ZStlsISt11char_traitsIcEERSt13basic_ostreamIcT_ES5_PKc.exit132

_ZStlsISt11char_traitsIcEERSt13basic_ostreamIcT_ES5_PKc.exit132: ; preds = %if.else.i131, %if.then.i128
  %call1.i91 = call dereferenceable(272) %"class.std::basic_ostream"* @_ZSt16__ostream_insertIcSt11char_traitsIcEERSt13basic_ostreamIT_T0_ES6_PKS3_l(%"class.std::basic_ostream"* nonnull dereferenceable(272) %57, i8* nonnull getelementptr inbounds ([2 x i8], [2 x i8]* @.str.9, i64 0, i64 0), i64 1)
  %tobool.i = icmp eq i8* %n1.n2, null
  br i1 %tobool.i, label %if.then.i, label %if.else.i

if.then.i:                                        ; preds = %_ZStlsISt11char_traitsIcEERSt13basic_ostreamIcT_ES5_PKc.exit132
  %64 = bitcast %"class.std::basic_ofstream"* %arrayidx30 to i8**
  %vtable.i = load i8*, i8** %64, align 16, !tbaa !6
  %vbase.offset.ptr.i = getelementptr i8, i8* %vtable.i, i64 -24
  %65 = bitcast i8* %vbase.offset.ptr.i to i64*
  %vbase.offset.i = load i64, i64* %65, align 8
  %66 = bitcast %"class.std::basic_ofstream"* %arrayidx30 to i8*
  %add.ptr.i = getelementptr inbounds i8, i8* %66, i64 %vbase.offset.i
  %67 = bitcast i8* %add.ptr.i to %"class.std::basic_ios"*
  %_M_streambuf_state.i.i.i = getelementptr inbounds i8, i8* %add.ptr.i, i64 32
  %68 = bitcast i8* %_M_streambuf_state.i.i.i to i32*
  %69 = load i32, i32* %68, align 8, !tbaa !8
  %or.i.i.i = or i32 %69, 1
  call void @_ZNSt9basic_iosIcSt11char_traitsIcEE5clearESt12_Ios_Iostate(%"class.std::basic_ios"* nonnull %67, i32 %or.i.i.i)
  br label %_ZStlsISt11char_traitsIcEERSt13basic_ostreamIcT_ES5_PKc.exit

if.else.i:                                        ; preds = %_ZStlsISt11char_traitsIcEERSt13basic_ostreamIcT_ES5_PKc.exit132
  %call.i.i39 = call i64 @strlen(i8* nonnull %n1.n2) #3
  %call1.i40 = call dereferenceable(272) %"class.std::basic_ostream"* @_ZSt16__ostream_insertIcSt11char_traitsIcEERSt13basic_ostreamIT_T0_ES6_PKS3_l(%"class.std::basic_ostream"* nonnull dereferenceable(272) %57, i8* nonnull %n1.n2, i64 %call.i.i39)
  br label %_ZStlsISt11char_traitsIcEERSt13basic_ostreamIcT_ES5_PKc.exit

_ZStlsISt11char_traitsIcEERSt13basic_ostreamIcT_ES5_PKc.exit: ; preds = %if.else.i, %if.then.i
  %call1.i = call dereferenceable(272) %"class.std::basic_ostream"* @_ZSt16__ostream_insertIcSt11char_traitsIcEERSt13basic_ostreamIT_T0_ES6_PKS3_l(%"class.std::basic_ostream"* nonnull dereferenceable(272) %57, i8* nonnull getelementptr inbounds ([2 x i8], [2 x i8]* @.str.1, i64 0, i64 0), i64 1)
  ret void
}

declare dso_local void @_ZNSsC1EPKcRKSaIcE(%"class.std::basic_string"*, i8*, %"class.std::ios_base::Init"* dereferenceable(1)) unnamed_addr #1

declare dso_local %"class.std::basic_filebuf"* @_ZNSt13basic_filebufIcSt11char_traitsIcEE4openEPKcSt13_Ios_Openmode(%"class.std::basic_filebuf"*, i8*, i32) local_unnamed_addr #1

; Function Attrs: argmemonly nounwind readonly
declare dso_local i64 @strlen(i8* nocapture) local_unnamed_addr #10

; Function Attrs: noinline uwtable
define dso_local void @printuBranch(i8* %name, i8* %kernel_type, i8* %run_dir, i8* %n1) #6 personality i8* bitcast (i32 (...)* @__gxx_personality_v0 to i8*) {
entry:
  %ref.tmp.i110 = alloca %"class.std::ios_base::Init", align 1
  %ref.tmp.i96 = alloca %"class.std::ios_base::Init", align 1
  %ref.tmp.i79 = alloca %"class.std::ios_base::Init", align 1
  %ref.tmp.i65 = alloca %"class.std::ios_base::Init", align 1
  %ref.tmp.i51 = alloca %"class.std::ios_base::Init", align 1
  %ref.tmp.i = alloca %"class.std::ios_base::Init", align 1
  %agg.tmp = alloca %"class.std::basic_string", align 8
  %ref.tmp = alloca %"class.std::ios_base::Init", align 1
  %agg.tmp5 = alloca %"class.std::basic_string", align 8
  %ref.tmp6 = alloca %"class.std::ios_base::Init", align 1
  %agg.tmp9 = alloca %"class.std::basic_string", align 8
  %ref.tmp10 = alloca %"class.std::ios_base::Init", align 1
  %call = tail call i32 @omp_get_thread_num() #3
  %idxprom = sext i32 %call to i64
  %_M_file.i.i = getelementptr inbounds [1024 x %"class.std::basic_ofstream"], [1024 x %"class.std::basic_ofstream"]* @f1, i64 0, i64 %idxprom, i32 1, i32 2
  %call.i.i = tail call zeroext i1 @_ZNKSt12__basic_fileIcE7is_openEv(%"class.std::__basic_file"* nonnull %_M_file.i.i) #22
  br i1 %call.i.i, label %if.end, label %if.then

if.then:                                          ; preds = %entry
  %call2 = tail call i32 @omp_get_thread_num() #3
  %idxprom3 = sext i32 %call2 to i64
  %arrayidx4 = getelementptr inbounds [1024 x %"class.std::basic_ofstream"], [1024 x %"class.std::basic_ofstream"]* @f1, i64 0, i64 %idxprom3
  %0 = getelementptr inbounds %"class.std::ios_base::Init", %"class.std::ios_base::Init"* %ref.tmp, i64 0, i32 0
  call void @llvm.lifetime.start.p0i8(i64 1, i8* nonnull %0) #3
  invoke void @_ZNSsC1EPKcRKSaIcE(%"class.std::basic_string"* nonnull %agg.tmp, i8* %run_dir, %"class.std::ios_base::Init"* nonnull dereferenceable(1) %ref.tmp)
          to label %invoke.cont unwind label %lpad

invoke.cont:                                      ; preds = %if.then
  %1 = getelementptr inbounds %"class.std::ios_base::Init", %"class.std::ios_base::Init"* %ref.tmp6, i64 0, i32 0
  call void @llvm.lifetime.start.p0i8(i64 1, i8* nonnull %1) #3
  invoke void @_ZNSsC1EPKcRKSaIcE(%"class.std::basic_string"* nonnull %agg.tmp5, i8* %kernel_type, %"class.std::ios_base::Init"* nonnull dereferenceable(1) %ref.tmp6)
          to label %invoke.cont8 unwind label %lpad7

invoke.cont8:                                     ; preds = %invoke.cont
  %2 = getelementptr inbounds %"class.std::ios_base::Init", %"class.std::ios_base::Init"* %ref.tmp10, i64 0, i32 0
  call void @llvm.lifetime.start.p0i8(i64 1, i8* nonnull %2) #3
  invoke void @_ZNSsC1EPKcRKSaIcE(%"class.std::basic_string"* nonnull %agg.tmp9, i8* getelementptr inbounds ([9 x i8], [9 x i8]* @.str.7, i64 0, i64 0), %"class.std::ios_base::Init"* nonnull dereferenceable(1) %ref.tmp10)
          to label %invoke.cont12 unwind label %lpad11

invoke.cont12:                                    ; preds = %invoke.cont8
  %call15 = invoke i8* @_Z12get_dir_nameSsSsSs(%"class.std::basic_string"* nonnull %agg.tmp, %"class.std::basic_string"* nonnull %agg.tmp5, %"class.std::basic_string"* nonnull %agg.tmp9)
          to label %invoke.cont14 unwind label %lpad13

invoke.cont14:                                    ; preds = %invoke.cont12
  %_M_filebuf.i = getelementptr inbounds [1024 x %"class.std::basic_ofstream"], [1024 x %"class.std::basic_ofstream"]* @f1, i64 0, i64 %idxprom3, i32 1
  %call2.i49 = invoke %"class.std::basic_filebuf"* @_ZNSt13basic_filebufIcSt11char_traitsIcEE4openEPKcSt13_Ios_Openmode(%"class.std::basic_filebuf"* nonnull %_M_filebuf.i, i8* %call15, i32 17)
          to label %call2.i.noexc unwind label %lpad13

call2.i.noexc:                                    ; preds = %invoke.cont14
  %tobool.i44 = icmp eq %"class.std::basic_filebuf"* %call2.i49, null
  %3 = bitcast %"class.std::basic_ofstream"* %arrayidx4 to i8**
  %vtable3.i = load i8*, i8** %3, align 16, !tbaa !6
  %vbase.offset.ptr4.i = getelementptr i8, i8* %vtable3.i, i64 -24
  %4 = bitcast i8* %vbase.offset.ptr4.i to i64*
  %vbase.offset5.i = load i64, i64* %4, align 8
  %5 = bitcast %"class.std::basic_ofstream"* %arrayidx4 to i8*
  %add.ptr6.i = getelementptr inbounds i8, i8* %5, i64 %vbase.offset5.i
  %6 = bitcast i8* %add.ptr6.i to %"class.std::basic_ios"*
  br i1 %tobool.i44, label %if.then.i47, label %if.else.i48

if.then.i47:                                      ; preds = %call2.i.noexc
  %_M_streambuf_state.i.i.i45 = getelementptr inbounds i8, i8* %add.ptr6.i, i64 32
  %7 = bitcast i8* %_M_streambuf_state.i.i.i45 to i32*
  %8 = load i32, i32* %7, align 8, !tbaa !8
  %or.i.i.i46 = or i32 %8, 4
  invoke void @_ZNSt9basic_iosIcSt11char_traitsIcEE5clearESt12_Ios_Iostate(%"class.std::basic_ios"* nonnull %6, i32 %or.i.i.i46)
          to label %invoke.cont18 unwind label %lpad13

if.else.i48:                                      ; preds = %call2.i.noexc
  invoke void @_ZNSt9basic_iosIcSt11char_traitsIcEE5clearESt12_Ios_Iostate(%"class.std::basic_ios"* nonnull %6, i32 0)
          to label %invoke.cont18 unwind label %lpad13

invoke.cont18:                                    ; preds = %if.else.i48, %if.then.i47
  %_M_p.i.i.i = getelementptr inbounds %"class.std::basic_string", %"class.std::basic_string"* %agg.tmp9, i64 0, i32 0, i32 0
  %9 = load i8*, i8** %_M_p.i.i.i, align 8, !tbaa !17
  %arrayidx.i.i = getelementptr inbounds i8, i8* %9, i64 -24
  %10 = bitcast i8* %arrayidx.i.i to %"struct.std::basic_string<char, std::char_traits<char>, std::allocator<char> >::_Rep"*
  %11 = getelementptr inbounds %"class.std::ios_base::Init", %"class.std::ios_base::Init"* %ref.tmp.i, i64 0, i32 0
  call void @llvm.lifetime.start.p0i8(i64 1, i8* nonnull %11) #3
  %cmp.i.i = icmp eq i8* %arrayidx.i.i, bitcast ([0 x i64]* @_ZNSs4_Rep20_S_empty_rep_storageE to i8*)
  br i1 %cmp.i.i, label %_ZNSsD2Ev.exit, label %if.then.i.i, !prof !22

if.then.i.i:                                      ; preds = %invoke.cont18
  %_M_refcount.i.i = getelementptr inbounds i8, i8* %9, i64 -8
  %12 = bitcast i8* %_M_refcount.i.i to i32*
  br i1 icmp ne (i8* bitcast (i32 (i32*, void (i8*)*)* @__pthread_key_create to i8*), i8* null), label %if.then.i.i.i, label %if.else.i.i.i

if.then.i.i.i:                                    ; preds = %if.then.i.i
  %13 = atomicrmw volatile add i32* %12, i32 -1 acq_rel
  br label %invoke.cont.i.i

if.else.i.i.i:                                    ; preds = %if.then.i.i
  %14 = load i32, i32* %12, align 4, !tbaa !23
  %add.i.i.i.i = add nsw i32 %14, -1
  store i32 %add.i.i.i.i, i32* %12, align 4, !tbaa !23
  br label %invoke.cont.i.i

invoke.cont.i.i:                                  ; preds = %if.else.i.i.i, %if.then.i.i.i
  %retval.0.i.i.i = phi i32 [ %13, %if.then.i.i.i ], [ %14, %if.else.i.i.i ]
  %cmp3.i.i = icmp slt i32 %retval.0.i.i.i, 1
  br i1 %cmp3.i.i, label %if.then4.i.i, label %_ZNSsD2Ev.exit

if.then4.i.i:                                     ; preds = %invoke.cont.i.i
  call void @_ZNSs4_Rep10_M_destroyERKSaIcE(%"struct.std::basic_string<char, std::char_traits<char>, std::allocator<char> >::_Rep"* nonnull %10, %"class.std::ios_base::Init"* nonnull dereferenceable(1) %ref.tmp.i) #3
  br label %_ZNSsD2Ev.exit

_ZNSsD2Ev.exit:                                   ; preds = %if.then4.i.i, %invoke.cont.i.i, %invoke.cont18
  call void @llvm.lifetime.end.p0i8(i64 1, i8* nonnull %11) #3
  call void @llvm.lifetime.end.p0i8(i64 1, i8* nonnull %2) #3
  %_M_p.i.i.i52 = getelementptr inbounds %"class.std::basic_string", %"class.std::basic_string"* %agg.tmp5, i64 0, i32 0, i32 0
  %15 = load i8*, i8** %_M_p.i.i.i52, align 8, !tbaa !17
  %arrayidx.i.i53 = getelementptr inbounds i8, i8* %15, i64 -24
  %16 = bitcast i8* %arrayidx.i.i53 to %"struct.std::basic_string<char, std::char_traits<char>, std::allocator<char> >::_Rep"*
  %17 = getelementptr inbounds %"class.std::ios_base::Init", %"class.std::ios_base::Init"* %ref.tmp.i51, i64 0, i32 0
  call void @llvm.lifetime.start.p0i8(i64 1, i8* nonnull %17) #3
  %cmp.i.i54 = icmp eq i8* %arrayidx.i.i53, bitcast ([0 x i64]* @_ZNSs4_Rep20_S_empty_rep_storageE to i8*)
  br i1 %cmp.i.i54, label %_ZNSsD2Ev.exit64, label %if.then.i.i56, !prof !22

if.then.i.i56:                                    ; preds = %_ZNSsD2Ev.exit
  %_M_refcount.i.i55 = getelementptr inbounds i8, i8* %15, i64 -8
  %18 = bitcast i8* %_M_refcount.i.i55 to i32*
  br i1 icmp ne (i8* bitcast (i32 (i32*, void (i8*)*)* @__pthread_key_create to i8*), i8* null), label %if.then.i.i.i57, label %if.else.i.i.i59

if.then.i.i.i57:                                  ; preds = %if.then.i.i56
  %19 = atomicrmw volatile add i32* %18, i32 -1 acq_rel
  br label %invoke.cont.i.i62

if.else.i.i.i59:                                  ; preds = %if.then.i.i56
  %20 = load i32, i32* %18, align 4, !tbaa !23
  %add.i.i.i.i58 = add nsw i32 %20, -1
  store i32 %add.i.i.i.i58, i32* %18, align 4, !tbaa !23
  br label %invoke.cont.i.i62

invoke.cont.i.i62:                                ; preds = %if.else.i.i.i59, %if.then.i.i.i57
  %retval.0.i.i.i60 = phi i32 [ %19, %if.then.i.i.i57 ], [ %20, %if.else.i.i.i59 ]
  %cmp3.i.i61 = icmp slt i32 %retval.0.i.i.i60, 1
  br i1 %cmp3.i.i61, label %if.then4.i.i63, label %_ZNSsD2Ev.exit64

if.then4.i.i63:                                   ; preds = %invoke.cont.i.i62
  call void @_ZNSs4_Rep10_M_destroyERKSaIcE(%"struct.std::basic_string<char, std::char_traits<char>, std::allocator<char> >::_Rep"* nonnull %16, %"class.std::ios_base::Init"* nonnull dereferenceable(1) %ref.tmp.i51) #3
  br label %_ZNSsD2Ev.exit64

_ZNSsD2Ev.exit64:                                 ; preds = %if.then4.i.i63, %invoke.cont.i.i62, %_ZNSsD2Ev.exit
  call void @llvm.lifetime.end.p0i8(i64 1, i8* nonnull %17) #3
  call void @llvm.lifetime.end.p0i8(i64 1, i8* nonnull %1) #3
  %_M_p.i.i.i66 = getelementptr inbounds %"class.std::basic_string", %"class.std::basic_string"* %agg.tmp, i64 0, i32 0, i32 0
  %21 = load i8*, i8** %_M_p.i.i.i66, align 8, !tbaa !17
  %arrayidx.i.i67 = getelementptr inbounds i8, i8* %21, i64 -24
  %22 = bitcast i8* %arrayidx.i.i67 to %"struct.std::basic_string<char, std::char_traits<char>, std::allocator<char> >::_Rep"*
  %23 = getelementptr inbounds %"class.std::ios_base::Init", %"class.std::ios_base::Init"* %ref.tmp.i65, i64 0, i32 0
  call void @llvm.lifetime.start.p0i8(i64 1, i8* nonnull %23) #3
  %cmp.i.i68 = icmp eq i8* %arrayidx.i.i67, bitcast ([0 x i64]* @_ZNSs4_Rep20_S_empty_rep_storageE to i8*)
  br i1 %cmp.i.i68, label %_ZNSsD2Ev.exit78, label %if.then.i.i70, !prof !22

if.then.i.i70:                                    ; preds = %_ZNSsD2Ev.exit64
  %_M_refcount.i.i69 = getelementptr inbounds i8, i8* %21, i64 -8
  %24 = bitcast i8* %_M_refcount.i.i69 to i32*
  br i1 icmp ne (i8* bitcast (i32 (i32*, void (i8*)*)* @__pthread_key_create to i8*), i8* null), label %if.then.i.i.i71, label %if.else.i.i.i73

if.then.i.i.i71:                                  ; preds = %if.then.i.i70
  %25 = atomicrmw volatile add i32* %24, i32 -1 acq_rel
  br label %invoke.cont.i.i76

if.else.i.i.i73:                                  ; preds = %if.then.i.i70
  %26 = load i32, i32* %24, align 4, !tbaa !23
  %add.i.i.i.i72 = add nsw i32 %26, -1
  store i32 %add.i.i.i.i72, i32* %24, align 4, !tbaa !23
  br label %invoke.cont.i.i76

invoke.cont.i.i76:                                ; preds = %if.else.i.i.i73, %if.then.i.i.i71
  %retval.0.i.i.i74 = phi i32 [ %25, %if.then.i.i.i71 ], [ %26, %if.else.i.i.i73 ]
  %cmp3.i.i75 = icmp slt i32 %retval.0.i.i.i74, 1
  br i1 %cmp3.i.i75, label %if.then4.i.i77, label %_ZNSsD2Ev.exit78

if.then4.i.i77:                                   ; preds = %invoke.cont.i.i76
  call void @_ZNSs4_Rep10_M_destroyERKSaIcE(%"struct.std::basic_string<char, std::char_traits<char>, std::allocator<char> >::_Rep"* nonnull %22, %"class.std::ios_base::Init"* nonnull dereferenceable(1) %ref.tmp.i65) #3
  br label %_ZNSsD2Ev.exit78

_ZNSsD2Ev.exit78:                                 ; preds = %if.then4.i.i77, %invoke.cont.i.i76, %_ZNSsD2Ev.exit64
  call void @llvm.lifetime.end.p0i8(i64 1, i8* nonnull %23) #3
  call void @llvm.lifetime.end.p0i8(i64 1, i8* nonnull %0) #3
  br label %if.end

lpad:                                             ; preds = %if.then
  %27 = landingpad { i8*, i32 }
          cleanup
  %28 = extractvalue { i8*, i32 } %27, 0
  %29 = extractvalue { i8*, i32 } %27, 1
  br label %ehcleanup24

lpad7:                                            ; preds = %invoke.cont
  %30 = landingpad { i8*, i32 }
          cleanup
  %31 = extractvalue { i8*, i32 } %30, 0
  %32 = extractvalue { i8*, i32 } %30, 1
  br label %ehcleanup21

lpad11:                                           ; preds = %invoke.cont8
  %33 = landingpad { i8*, i32 }
          cleanup
  %34 = extractvalue { i8*, i32 } %33, 0
  %35 = extractvalue { i8*, i32 } %33, 1
  br label %ehcleanup

lpad13:                                           ; preds = %if.else.i48, %if.then.i47, %invoke.cont14, %invoke.cont12
  %36 = landingpad { i8*, i32 }
          cleanup
  %37 = extractvalue { i8*, i32 } %36, 0
  %38 = extractvalue { i8*, i32 } %36, 1
  %_M_p.i.i.i80 = getelementptr inbounds %"class.std::basic_string", %"class.std::basic_string"* %agg.tmp9, i64 0, i32 0, i32 0
  %39 = load i8*, i8** %_M_p.i.i.i80, align 8, !tbaa !17
  %arrayidx.i.i81 = getelementptr inbounds i8, i8* %39, i64 -24
  %40 = bitcast i8* %arrayidx.i.i81 to %"struct.std::basic_string<char, std::char_traits<char>, std::allocator<char> >::_Rep"*
  %41 = getelementptr inbounds %"class.std::ios_base::Init", %"class.std::ios_base::Init"* %ref.tmp.i79, i64 0, i32 0
  call void @llvm.lifetime.start.p0i8(i64 1, i8* nonnull %41) #3
  %cmp.i.i82 = icmp eq i8* %arrayidx.i.i81, bitcast ([0 x i64]* @_ZNSs4_Rep20_S_empty_rep_storageE to i8*)
  br i1 %cmp.i.i82, label %_ZNSsD2Ev.exit92, label %if.then.i.i84, !prof !22

if.then.i.i84:                                    ; preds = %lpad13
  %_M_refcount.i.i83 = getelementptr inbounds i8, i8* %39, i64 -8
  %42 = bitcast i8* %_M_refcount.i.i83 to i32*
  br i1 icmp ne (i8* bitcast (i32 (i32*, void (i8*)*)* @__pthread_key_create to i8*), i8* null), label %if.then.i.i.i85, label %if.else.i.i.i87

if.then.i.i.i85:                                  ; preds = %if.then.i.i84
  %43 = atomicrmw volatile add i32* %42, i32 -1 acq_rel
  br label %invoke.cont.i.i90

if.else.i.i.i87:                                  ; preds = %if.then.i.i84
  %44 = load i32, i32* %42, align 4, !tbaa !23
  %add.i.i.i.i86 = add nsw i32 %44, -1
  store i32 %add.i.i.i.i86, i32* %42, align 4, !tbaa !23
  br label %invoke.cont.i.i90

invoke.cont.i.i90:                                ; preds = %if.else.i.i.i87, %if.then.i.i.i85
  %retval.0.i.i.i88 = phi i32 [ %43, %if.then.i.i.i85 ], [ %44, %if.else.i.i.i87 ]
  %cmp3.i.i89 = icmp slt i32 %retval.0.i.i.i88, 1
  br i1 %cmp3.i.i89, label %if.then4.i.i91, label %_ZNSsD2Ev.exit92

if.then4.i.i91:                                   ; preds = %invoke.cont.i.i90
  call void @_ZNSs4_Rep10_M_destroyERKSaIcE(%"struct.std::basic_string<char, std::char_traits<char>, std::allocator<char> >::_Rep"* nonnull %40, %"class.std::ios_base::Init"* nonnull dereferenceable(1) %ref.tmp.i79) #3
  br label %_ZNSsD2Ev.exit92

_ZNSsD2Ev.exit92:                                 ; preds = %if.then4.i.i91, %invoke.cont.i.i90, %lpad13
  call void @llvm.lifetime.end.p0i8(i64 1, i8* nonnull %41) #3
  br label %ehcleanup

ehcleanup:                                        ; preds = %_ZNSsD2Ev.exit92, %lpad11
  %exn.slot.0 = phi i8* [ %37, %_ZNSsD2Ev.exit92 ], [ %34, %lpad11 ]
  %ehselector.slot.0 = phi i32 [ %38, %_ZNSsD2Ev.exit92 ], [ %35, %lpad11 ]
  call void @llvm.lifetime.end.p0i8(i64 1, i8* nonnull %2) #3
  %_M_p.i.i.i97 = getelementptr inbounds %"class.std::basic_string", %"class.std::basic_string"* %agg.tmp5, i64 0, i32 0, i32 0
  %45 = load i8*, i8** %_M_p.i.i.i97, align 8, !tbaa !17
  %arrayidx.i.i98 = getelementptr inbounds i8, i8* %45, i64 -24
  %46 = bitcast i8* %arrayidx.i.i98 to %"struct.std::basic_string<char, std::char_traits<char>, std::allocator<char> >::_Rep"*
  %47 = getelementptr inbounds %"class.std::ios_base::Init", %"class.std::ios_base::Init"* %ref.tmp.i96, i64 0, i32 0
  call void @llvm.lifetime.start.p0i8(i64 1, i8* nonnull %47) #3
  %cmp.i.i99 = icmp eq i8* %arrayidx.i.i98, bitcast ([0 x i64]* @_ZNSs4_Rep20_S_empty_rep_storageE to i8*)
  br i1 %cmp.i.i99, label %_ZNSsD2Ev.exit109, label %if.then.i.i101, !prof !22

if.then.i.i101:                                   ; preds = %ehcleanup
  %_M_refcount.i.i100 = getelementptr inbounds i8, i8* %45, i64 -8
  %48 = bitcast i8* %_M_refcount.i.i100 to i32*
  br i1 icmp ne (i8* bitcast (i32 (i32*, void (i8*)*)* @__pthread_key_create to i8*), i8* null), label %if.then.i.i.i102, label %if.else.i.i.i104

if.then.i.i.i102:                                 ; preds = %if.then.i.i101
  %49 = atomicrmw volatile add i32* %48, i32 -1 acq_rel
  br label %invoke.cont.i.i107

if.else.i.i.i104:                                 ; preds = %if.then.i.i101
  %50 = load i32, i32* %48, align 4, !tbaa !23
  %add.i.i.i.i103 = add nsw i32 %50, -1
  store i32 %add.i.i.i.i103, i32* %48, align 4, !tbaa !23
  br label %invoke.cont.i.i107

invoke.cont.i.i107:                               ; preds = %if.else.i.i.i104, %if.then.i.i.i102
  %retval.0.i.i.i105 = phi i32 [ %49, %if.then.i.i.i102 ], [ %50, %if.else.i.i.i104 ]
  %cmp3.i.i106 = icmp slt i32 %retval.0.i.i.i105, 1
  br i1 %cmp3.i.i106, label %if.then4.i.i108, label %_ZNSsD2Ev.exit109

if.then4.i.i108:                                  ; preds = %invoke.cont.i.i107
  call void @_ZNSs4_Rep10_M_destroyERKSaIcE(%"struct.std::basic_string<char, std::char_traits<char>, std::allocator<char> >::_Rep"* nonnull %46, %"class.std::ios_base::Init"* nonnull dereferenceable(1) %ref.tmp.i96) #3
  br label %_ZNSsD2Ev.exit109

_ZNSsD2Ev.exit109:                                ; preds = %if.then4.i.i108, %invoke.cont.i.i107, %ehcleanup
  call void @llvm.lifetime.end.p0i8(i64 1, i8* nonnull %47) #3
  br label %ehcleanup21

ehcleanup21:                                      ; preds = %_ZNSsD2Ev.exit109, %lpad7
  %exn.slot.1 = phi i8* [ %exn.slot.0, %_ZNSsD2Ev.exit109 ], [ %31, %lpad7 ]
  %ehselector.slot.1 = phi i32 [ %ehselector.slot.0, %_ZNSsD2Ev.exit109 ], [ %32, %lpad7 ]
  call void @llvm.lifetime.end.p0i8(i64 1, i8* nonnull %1) #3
  %_M_p.i.i.i111 = getelementptr inbounds %"class.std::basic_string", %"class.std::basic_string"* %agg.tmp, i64 0, i32 0, i32 0
  %51 = load i8*, i8** %_M_p.i.i.i111, align 8, !tbaa !17
  %arrayidx.i.i112 = getelementptr inbounds i8, i8* %51, i64 -24
  %52 = bitcast i8* %arrayidx.i.i112 to %"struct.std::basic_string<char, std::char_traits<char>, std::allocator<char> >::_Rep"*
  %53 = getelementptr inbounds %"class.std::ios_base::Init", %"class.std::ios_base::Init"* %ref.tmp.i110, i64 0, i32 0
  call void @llvm.lifetime.start.p0i8(i64 1, i8* nonnull %53) #3
  %cmp.i.i113 = icmp eq i8* %arrayidx.i.i112, bitcast ([0 x i64]* @_ZNSs4_Rep20_S_empty_rep_storageE to i8*)
  br i1 %cmp.i.i113, label %_ZNSsD2Ev.exit123, label %if.then.i.i115, !prof !22

if.then.i.i115:                                   ; preds = %ehcleanup21
  %_M_refcount.i.i114 = getelementptr inbounds i8, i8* %51, i64 -8
  %54 = bitcast i8* %_M_refcount.i.i114 to i32*
  br i1 icmp ne (i8* bitcast (i32 (i32*, void (i8*)*)* @__pthread_key_create to i8*), i8* null), label %if.then.i.i.i116, label %if.else.i.i.i118

if.then.i.i.i116:                                 ; preds = %if.then.i.i115
  %55 = atomicrmw volatile add i32* %54, i32 -1 acq_rel
  br label %invoke.cont.i.i121

if.else.i.i.i118:                                 ; preds = %if.then.i.i115
  %56 = load i32, i32* %54, align 4, !tbaa !23
  %add.i.i.i.i117 = add nsw i32 %56, -1
  store i32 %add.i.i.i.i117, i32* %54, align 4, !tbaa !23
  br label %invoke.cont.i.i121

invoke.cont.i.i121:                               ; preds = %if.else.i.i.i118, %if.then.i.i.i116
  %retval.0.i.i.i119 = phi i32 [ %55, %if.then.i.i.i116 ], [ %56, %if.else.i.i.i118 ]
  %cmp3.i.i120 = icmp slt i32 %retval.0.i.i.i119, 1
  br i1 %cmp3.i.i120, label %if.then4.i.i122, label %_ZNSsD2Ev.exit123

if.then4.i.i122:                                  ; preds = %invoke.cont.i.i121
  call void @_ZNSs4_Rep10_M_destroyERKSaIcE(%"struct.std::basic_string<char, std::char_traits<char>, std::allocator<char> >::_Rep"* nonnull %52, %"class.std::ios_base::Init"* nonnull dereferenceable(1) %ref.tmp.i110) #3
  br label %_ZNSsD2Ev.exit123

_ZNSsD2Ev.exit123:                                ; preds = %if.then4.i.i122, %invoke.cont.i.i121, %ehcleanup21
  call void @llvm.lifetime.end.p0i8(i64 1, i8* nonnull %53) #3
  br label %ehcleanup24

ehcleanup24:                                      ; preds = %_ZNSsD2Ev.exit123, %lpad
  %exn.slot.2 = phi i8* [ %exn.slot.1, %_ZNSsD2Ev.exit123 ], [ %28, %lpad ]
  %ehselector.slot.2 = phi i32 [ %ehselector.slot.1, %_ZNSsD2Ev.exit123 ], [ %29, %lpad ]
  call void @llvm.lifetime.end.p0i8(i64 1, i8* nonnull %0) #3
  %lpad.val = insertvalue { i8*, i32 } undef, i8* %exn.slot.2, 0
  %lpad.val40 = insertvalue { i8*, i32 } %lpad.val, i32 %ehselector.slot.2, 1
  resume { i8*, i32 } %lpad.val40

if.end:                                           ; preds = %_ZNSsD2Ev.exit78, %entry
  %call26 = call i32 @omp_get_thread_num() #3
  %idxprom27 = sext i32 %call26 to i64
  %_M_file.i.i136 = getelementptr inbounds [1024 x %"class.std::basic_ofstream"], [1024 x %"class.std::basic_ofstream"]* @f1, i64 0, i64 %idxprom27, i32 1, i32 2
  %call.i.i137 = call zeroext i1 @_ZNKSt12__basic_fileIcE7is_openEv(%"class.std::__basic_file"* nonnull %_M_file.i.i136) #22
  br i1 %call.i.i137, label %if.end31, label %if.then30

if.then30:                                        ; preds = %if.end
  call void @__assert_fail(i8* getelementptr inbounds ([6 x i8], [6 x i8]* @.str.10, i64 0, i64 0), i8* getelementptr inbounds ([10 x i8], [10 x i8]* @.str.3, i64 0, i64 0), i32 77, i8* getelementptr inbounds ([50 x i8], [50 x i8]* @__PRETTY_FUNCTION__.printuBranch, i64 0, i64 0)) #23
  unreachable

if.end31:                                         ; preds = %if.end
  %call32 = call i32 @omp_get_thread_num() #3
  %idxprom33 = sext i32 %call32 to i64
  %arrayidx34 = getelementptr inbounds [1024 x %"class.std::basic_ofstream"], [1024 x %"class.std::basic_ofstream"]* @f1, i64 0, i64 %idxprom33
  %57 = bitcast %"class.std::basic_ofstream"* %arrayidx34 to %"class.std::basic_ostream"*
  %call1.i139 = call dereferenceable(272) %"class.std::basic_ostream"* @_ZSt16__ostream_insertIcSt11char_traitsIcEERSt13basic_ostreamIT_T0_ES6_PKS3_l(%"class.std::basic_ostream"* nonnull dereferenceable(272) %57, i8* nonnull getelementptr inbounds ([3 x i8], [3 x i8]* @.str.11, i64 0, i64 0), i64 2)
  %tobool.i124 = icmp eq i8* %name, null
  br i1 %tobool.i124, label %if.then.i131, label %if.else.i134

if.then.i131:                                     ; preds = %if.end31
  %58 = bitcast %"class.std::basic_ofstream"* %arrayidx34 to i8**
  %vtable.i125 = load i8*, i8** %58, align 16, !tbaa !6
  %vbase.offset.ptr.i126 = getelementptr i8, i8* %vtable.i125, i64 -24
  %59 = bitcast i8* %vbase.offset.ptr.i126 to i64*
  %vbase.offset.i127 = load i64, i64* %59, align 8
  %60 = bitcast %"class.std::basic_ofstream"* %arrayidx34 to i8*
  %add.ptr.i128 = getelementptr inbounds i8, i8* %60, i64 %vbase.offset.i127
  %61 = bitcast i8* %add.ptr.i128 to %"class.std::basic_ios"*
  %_M_streambuf_state.i.i.i129 = getelementptr inbounds i8, i8* %add.ptr.i128, i64 32
  %62 = bitcast i8* %_M_streambuf_state.i.i.i129 to i32*
  %63 = load i32, i32* %62, align 8, !tbaa !8
  %or.i.i.i130 = or i32 %63, 1
  call void @_ZNSt9basic_iosIcSt11char_traitsIcEE5clearESt12_Ios_Iostate(%"class.std::basic_ios"* nonnull %61, i32 %or.i.i.i130)
  br label %_ZStlsISt11char_traitsIcEERSt13basic_ostreamIcT_ES5_PKc.exit135

if.else.i134:                                     ; preds = %if.end31
  %call.i.i132 = call i64 @strlen(i8* nonnull %name) #3
  %call1.i133 = call dereferenceable(272) %"class.std::basic_ostream"* @_ZSt16__ostream_insertIcSt11char_traitsIcEERSt13basic_ostreamIT_T0_ES6_PKS3_l(%"class.std::basic_ostream"* nonnull dereferenceable(272) %57, i8* nonnull %name, i64 %call.i.i132)
  br label %_ZStlsISt11char_traitsIcEERSt13basic_ostreamIcT_ES5_PKc.exit135

_ZStlsISt11char_traitsIcEERSt13basic_ostreamIcT_ES5_PKc.exit135: ; preds = %if.else.i134, %if.then.i131
  %call1.i94 = call dereferenceable(272) %"class.std::basic_ostream"* @_ZSt16__ostream_insertIcSt11char_traitsIcEERSt13basic_ostreamIT_T0_ES6_PKS3_l(%"class.std::basic_ostream"* nonnull dereferenceable(272) %57, i8* nonnull getelementptr inbounds ([2 x i8], [2 x i8]* @.str.9, i64 0, i64 0), i64 1)
  %tobool.i = icmp eq i8* %n1, null
  br i1 %tobool.i, label %if.then.i, label %if.else.i

if.then.i:                                        ; preds = %_ZStlsISt11char_traitsIcEERSt13basic_ostreamIcT_ES5_PKc.exit135
  %64 = bitcast %"class.std::basic_ofstream"* %arrayidx34 to i8**
  %vtable.i = load i8*, i8** %64, align 16, !tbaa !6
  %vbase.offset.ptr.i = getelementptr i8, i8* %vtable.i, i64 -24
  %65 = bitcast i8* %vbase.offset.ptr.i to i64*
  %vbase.offset.i = load i64, i64* %65, align 8
  %66 = bitcast %"class.std::basic_ofstream"* %arrayidx34 to i8*
  %add.ptr.i = getelementptr inbounds i8, i8* %66, i64 %vbase.offset.i
  %67 = bitcast i8* %add.ptr.i to %"class.std::basic_ios"*
  %_M_streambuf_state.i.i.i = getelementptr inbounds i8, i8* %add.ptr.i, i64 32
  %68 = bitcast i8* %_M_streambuf_state.i.i.i to i32*
  %69 = load i32, i32* %68, align 8, !tbaa !8
  %or.i.i.i = or i32 %69, 1
  call void @_ZNSt9basic_iosIcSt11char_traitsIcEE5clearESt12_Ios_Iostate(%"class.std::basic_ios"* nonnull %67, i32 %or.i.i.i)
  br label %_ZStlsISt11char_traitsIcEERSt13basic_ostreamIcT_ES5_PKc.exit

if.else.i:                                        ; preds = %_ZStlsISt11char_traitsIcEERSt13basic_ostreamIcT_ES5_PKc.exit135
  %call.i.i42 = call i64 @strlen(i8* nonnull %n1) #3
  %call1.i43 = call dereferenceable(272) %"class.std::basic_ostream"* @_ZSt16__ostream_insertIcSt11char_traitsIcEERSt13basic_ostreamIT_T0_ES6_PKS3_l(%"class.std::basic_ostream"* nonnull dereferenceable(272) %57, i8* nonnull %n1, i64 %call.i.i42)
  br label %_ZStlsISt11char_traitsIcEERSt13basic_ostreamIcT_ES5_PKc.exit

_ZStlsISt11char_traitsIcEERSt13basic_ostreamIcT_ES5_PKc.exit: ; preds = %if.else.i, %if.then.i
  %call1.i = call dereferenceable(272) %"class.std::basic_ostream"* @_ZSt16__ostream_insertIcSt11char_traitsIcEERSt13basic_ostreamIT_T0_ES6_PKS3_l(%"class.std::basic_ostream"* nonnull dereferenceable(272) %57, i8* nonnull getelementptr inbounds ([2 x i8], [2 x i8]* @.str.1, i64 0, i64 0), i64 1)
  ret void
}

; Function Attrs: noinline uwtable
define dso_local void @printMem(i8* %name, i8* %kernel_type, i8* %run_dir, i1 zeroext %type, i64 %addr, i32 %size) #6 personality i8* bitcast (i32 (...)* @__gxx_personality_v0 to i8*) {
entry:
  %ref.tmp.i129 = alloca %"class.std::ios_base::Init", align 1
  %ref.tmp.i115 = alloca %"class.std::ios_base::Init", align 1
  %ref.tmp.i98 = alloca %"class.std::ios_base::Init", align 1
  %ref.tmp.i84 = alloca %"class.std::ios_base::Init", align 1
  %ref.tmp.i70 = alloca %"class.std::ios_base::Init", align 1
  %ref.tmp.i = alloca %"class.std::ios_base::Init", align 1
  %agg.tmp = alloca %"class.std::basic_string", align 8
  %ref.tmp = alloca %"class.std::ios_base::Init", align 1
  %agg.tmp9 = alloca %"class.std::basic_string", align 8
  %ref.tmp10 = alloca %"class.std::ios_base::Init", align 1
  %agg.tmp13 = alloca %"class.std::basic_string", align 8
  %ref.tmp14 = alloca %"class.std::ios_base::Init", align 1
  %0 = load i8, i8* @expert_mode, align 1, !tbaa !2, !range !24
  %tobool = icmp eq i8 %0, 0
  br i1 %tobool, label %if.then, label %if.end2

if.then:                                          ; preds = %entry
  %1 = load i64, i64* @remaining_mem_accesses, align 8, !tbaa !25
  %cmp = icmp slt i64 %1, 1
  br i1 %cmp, label %if.then1, label %if.end

if.then1:                                         ; preds = %if.then
  %call = tail call dereferenceable(272) %"class.std::basic_ostream"* @_ZStlsISt11char_traitsIcEERSt13basic_ostreamIcT_ES5_PKc(%"class.std::basic_ostream"* nonnull dereferenceable(272) @_ZSt4cout, i8* getelementptr inbounds ([66 x i8], [66 x i8]* @.str.12, i64 0, i64 0))
  tail call void @__assert_fail(i8* getelementptr inbounds ([6 x i8], [6 x i8]* @.str.10, i64 0, i64 0), i8* getelementptr inbounds ([10 x i8], [10 x i8]* @.str.3, i64 0, i64 0), i32 90, i8* getelementptr inbounds ([60 x i8], [60 x i8]* @__PRETTY_FUNCTION__.printMem, i64 0, i64 0)) #23
  unreachable

if.end:                                           ; preds = %if.then
  %dec = add nsw i64 %1, -1
  store i64 %dec, i64* @remaining_mem_accesses, align 8, !tbaa !25
  br label %if.end2

if.end2:                                          ; preds = %if.end, %entry
  %call3 = tail call i32 @omp_get_thread_num() #3
  %idxprom = sext i32 %call3 to i64
  %_M_file.i.i = getelementptr inbounds [1024 x %"class.std::basic_ofstream"], [1024 x %"class.std::basic_ofstream"]* @f2, i64 0, i64 %idxprom, i32 1, i32 2
  %call.i.i = tail call zeroext i1 @_ZNKSt12__basic_fileIcE7is_openEv(%"class.std::__basic_file"* nonnull %_M_file.i.i) #22
  br i1 %call.i.i, label %if.end30, label %if.then5

if.then5:                                         ; preds = %if.end2
  %call6 = tail call i32 @omp_get_thread_num() #3
  %idxprom7 = sext i32 %call6 to i64
  %arrayidx8 = getelementptr inbounds [1024 x %"class.std::basic_ofstream"], [1024 x %"class.std::basic_ofstream"]* @f2, i64 0, i64 %idxprom7
  %2 = getelementptr inbounds %"class.std::ios_base::Init", %"class.std::ios_base::Init"* %ref.tmp, i64 0, i32 0
  call void @llvm.lifetime.start.p0i8(i64 1, i8* nonnull %2) #3
  invoke void @_ZNSsC1EPKcRKSaIcE(%"class.std::basic_string"* nonnull %agg.tmp, i8* %run_dir, %"class.std::ios_base::Init"* nonnull dereferenceable(1) %ref.tmp)
          to label %invoke.cont unwind label %lpad

invoke.cont:                                      ; preds = %if.then5
  %3 = getelementptr inbounds %"class.std::ios_base::Init", %"class.std::ios_base::Init"* %ref.tmp10, i64 0, i32 0
  call void @llvm.lifetime.start.p0i8(i64 1, i8* nonnull %3) #3
  invoke void @_ZNSsC1EPKcRKSaIcE(%"class.std::basic_string"* nonnull %agg.tmp9, i8* %kernel_type, %"class.std::ios_base::Init"* nonnull dereferenceable(1) %ref.tmp10)
          to label %invoke.cont12 unwind label %lpad11

invoke.cont12:                                    ; preds = %invoke.cont
  %4 = getelementptr inbounds %"class.std::ios_base::Init", %"class.std::ios_base::Init"* %ref.tmp14, i64 0, i32 0
  call void @llvm.lifetime.start.p0i8(i64 1, i8* nonnull %4) #3
  invoke void @_ZNSsC1EPKcRKSaIcE(%"class.std::basic_string"* nonnull %agg.tmp13, i8* getelementptr inbounds ([8 x i8], [8 x i8]* @.str.13, i64 0, i64 0), %"class.std::ios_base::Init"* nonnull dereferenceable(1) %ref.tmp14)
          to label %invoke.cont16 unwind label %lpad15

invoke.cont16:                                    ; preds = %invoke.cont12
  %call19 = invoke i8* @_Z12get_dir_nameSsSsSs(%"class.std::basic_string"* nonnull %agg.tmp, %"class.std::basic_string"* nonnull %agg.tmp9, %"class.std::basic_string"* nonnull %agg.tmp13)
          to label %invoke.cont18 unwind label %lpad17

invoke.cont18:                                    ; preds = %invoke.cont16
  %_M_filebuf.i = getelementptr inbounds [1024 x %"class.std::basic_ofstream"], [1024 x %"class.std::basic_ofstream"]* @f2, i64 0, i64 %idxprom7, i32 1
  %call2.i68 = invoke %"class.std::basic_filebuf"* @_ZNSt13basic_filebufIcSt11char_traitsIcEE4openEPKcSt13_Ios_Openmode(%"class.std::basic_filebuf"* nonnull %_M_filebuf.i, i8* %call19, i32 17)
          to label %call2.i.noexc unwind label %lpad17

call2.i.noexc:                                    ; preds = %invoke.cont18
  %tobool.i = icmp eq %"class.std::basic_filebuf"* %call2.i68, null
  %5 = bitcast %"class.std::basic_ofstream"* %arrayidx8 to i8**
  %vtable3.i = load i8*, i8** %5, align 16, !tbaa !6
  %vbase.offset.ptr4.i = getelementptr i8, i8* %vtable3.i, i64 -24
  %6 = bitcast i8* %vbase.offset.ptr4.i to i64*
  %vbase.offset5.i = load i64, i64* %6, align 8
  %7 = bitcast %"class.std::basic_ofstream"* %arrayidx8 to i8*
  %add.ptr6.i = getelementptr inbounds i8, i8* %7, i64 %vbase.offset5.i
  %8 = bitcast i8* %add.ptr6.i to %"class.std::basic_ios"*
  br i1 %tobool.i, label %if.then.i, label %if.else.i

if.then.i:                                        ; preds = %call2.i.noexc
  %_M_streambuf_state.i.i.i = getelementptr inbounds i8, i8* %add.ptr6.i, i64 32
  %9 = bitcast i8* %_M_streambuf_state.i.i.i to i32*
  %10 = load i32, i32* %9, align 8, !tbaa !8
  %or.i.i.i = or i32 %10, 4
  invoke void @_ZNSt9basic_iosIcSt11char_traitsIcEE5clearESt12_Ios_Iostate(%"class.std::basic_ios"* nonnull %8, i32 %or.i.i.i)
          to label %invoke.cont22 unwind label %lpad17

if.else.i:                                        ; preds = %call2.i.noexc
  invoke void @_ZNSt9basic_iosIcSt11char_traitsIcEE5clearESt12_Ios_Iostate(%"class.std::basic_ios"* nonnull %8, i32 0)
          to label %invoke.cont22 unwind label %lpad17

invoke.cont22:                                    ; preds = %if.else.i, %if.then.i
  %_M_p.i.i.i = getelementptr inbounds %"class.std::basic_string", %"class.std::basic_string"* %agg.tmp13, i64 0, i32 0, i32 0
  %11 = load i8*, i8** %_M_p.i.i.i, align 8, !tbaa !17
  %arrayidx.i.i = getelementptr inbounds i8, i8* %11, i64 -24
  %12 = bitcast i8* %arrayidx.i.i to %"struct.std::basic_string<char, std::char_traits<char>, std::allocator<char> >::_Rep"*
  %13 = getelementptr inbounds %"class.std::ios_base::Init", %"class.std::ios_base::Init"* %ref.tmp.i, i64 0, i32 0
  call void @llvm.lifetime.start.p0i8(i64 1, i8* nonnull %13) #3
  %cmp.i.i = icmp eq i8* %arrayidx.i.i, bitcast ([0 x i64]* @_ZNSs4_Rep20_S_empty_rep_storageE to i8*)
  br i1 %cmp.i.i, label %_ZNSsD2Ev.exit, label %if.then.i.i, !prof !22

if.then.i.i:                                      ; preds = %invoke.cont22
  %_M_refcount.i.i = getelementptr inbounds i8, i8* %11, i64 -8
  %14 = bitcast i8* %_M_refcount.i.i to i32*
  br i1 icmp ne (i8* bitcast (i32 (i32*, void (i8*)*)* @__pthread_key_create to i8*), i8* null), label %if.then.i.i.i, label %if.else.i.i.i

if.then.i.i.i:                                    ; preds = %if.then.i.i
  %15 = atomicrmw volatile add i32* %14, i32 -1 acq_rel
  br label %invoke.cont.i.i

if.else.i.i.i:                                    ; preds = %if.then.i.i
  %16 = load i32, i32* %14, align 4, !tbaa !23
  %add.i.i.i.i = add nsw i32 %16, -1
  store i32 %add.i.i.i.i, i32* %14, align 4, !tbaa !23
  br label %invoke.cont.i.i

invoke.cont.i.i:                                  ; preds = %if.else.i.i.i, %if.then.i.i.i
  %retval.0.i.i.i = phi i32 [ %15, %if.then.i.i.i ], [ %16, %if.else.i.i.i ]
  %cmp3.i.i = icmp slt i32 %retval.0.i.i.i, 1
  br i1 %cmp3.i.i, label %if.then4.i.i, label %_ZNSsD2Ev.exit

if.then4.i.i:                                     ; preds = %invoke.cont.i.i
  call void @_ZNSs4_Rep10_M_destroyERKSaIcE(%"struct.std::basic_string<char, std::char_traits<char>, std::allocator<char> >::_Rep"* nonnull %12, %"class.std::ios_base::Init"* nonnull dereferenceable(1) %ref.tmp.i) #3
  br label %_ZNSsD2Ev.exit

_ZNSsD2Ev.exit:                                   ; preds = %if.then4.i.i, %invoke.cont.i.i, %invoke.cont22
  call void @llvm.lifetime.end.p0i8(i64 1, i8* nonnull %13) #3
  call void @llvm.lifetime.end.p0i8(i64 1, i8* nonnull %4) #3
  %_M_p.i.i.i71 = getelementptr inbounds %"class.std::basic_string", %"class.std::basic_string"* %agg.tmp9, i64 0, i32 0, i32 0
  %17 = load i8*, i8** %_M_p.i.i.i71, align 8, !tbaa !17
  %arrayidx.i.i72 = getelementptr inbounds i8, i8* %17, i64 -24
  %18 = bitcast i8* %arrayidx.i.i72 to %"struct.std::basic_string<char, std::char_traits<char>, std::allocator<char> >::_Rep"*
  %19 = getelementptr inbounds %"class.std::ios_base::Init", %"class.std::ios_base::Init"* %ref.tmp.i70, i64 0, i32 0
  call void @llvm.lifetime.start.p0i8(i64 1, i8* nonnull %19) #3
  %cmp.i.i73 = icmp eq i8* %arrayidx.i.i72, bitcast ([0 x i64]* @_ZNSs4_Rep20_S_empty_rep_storageE to i8*)
  br i1 %cmp.i.i73, label %_ZNSsD2Ev.exit83, label %if.then.i.i75, !prof !22

if.then.i.i75:                                    ; preds = %_ZNSsD2Ev.exit
  %_M_refcount.i.i74 = getelementptr inbounds i8, i8* %17, i64 -8
  %20 = bitcast i8* %_M_refcount.i.i74 to i32*
  br i1 icmp ne (i8* bitcast (i32 (i32*, void (i8*)*)* @__pthread_key_create to i8*), i8* null), label %if.then.i.i.i76, label %if.else.i.i.i78

if.then.i.i.i76:                                  ; preds = %if.then.i.i75
  %21 = atomicrmw volatile add i32* %20, i32 -1 acq_rel
  br label %invoke.cont.i.i81

if.else.i.i.i78:                                  ; preds = %if.then.i.i75
  %22 = load i32, i32* %20, align 4, !tbaa !23
  %add.i.i.i.i77 = add nsw i32 %22, -1
  store i32 %add.i.i.i.i77, i32* %20, align 4, !tbaa !23
  br label %invoke.cont.i.i81

invoke.cont.i.i81:                                ; preds = %if.else.i.i.i78, %if.then.i.i.i76
  %retval.0.i.i.i79 = phi i32 [ %21, %if.then.i.i.i76 ], [ %22, %if.else.i.i.i78 ]
  %cmp3.i.i80 = icmp slt i32 %retval.0.i.i.i79, 1
  br i1 %cmp3.i.i80, label %if.then4.i.i82, label %_ZNSsD2Ev.exit83

if.then4.i.i82:                                   ; preds = %invoke.cont.i.i81
  call void @_ZNSs4_Rep10_M_destroyERKSaIcE(%"struct.std::basic_string<char, std::char_traits<char>, std::allocator<char> >::_Rep"* nonnull %18, %"class.std::ios_base::Init"* nonnull dereferenceable(1) %ref.tmp.i70) #3
  br label %_ZNSsD2Ev.exit83

_ZNSsD2Ev.exit83:                                 ; preds = %if.then4.i.i82, %invoke.cont.i.i81, %_ZNSsD2Ev.exit
  call void @llvm.lifetime.end.p0i8(i64 1, i8* nonnull %19) #3
  call void @llvm.lifetime.end.p0i8(i64 1, i8* nonnull %3) #3
  %_M_p.i.i.i85 = getelementptr inbounds %"class.std::basic_string", %"class.std::basic_string"* %agg.tmp, i64 0, i32 0, i32 0
  %23 = load i8*, i8** %_M_p.i.i.i85, align 8, !tbaa !17
  %arrayidx.i.i86 = getelementptr inbounds i8, i8* %23, i64 -24
  %24 = bitcast i8* %arrayidx.i.i86 to %"struct.std::basic_string<char, std::char_traits<char>, std::allocator<char> >::_Rep"*
  %25 = getelementptr inbounds %"class.std::ios_base::Init", %"class.std::ios_base::Init"* %ref.tmp.i84, i64 0, i32 0
  call void @llvm.lifetime.start.p0i8(i64 1, i8* nonnull %25) #3
  %cmp.i.i87 = icmp eq i8* %arrayidx.i.i86, bitcast ([0 x i64]* @_ZNSs4_Rep20_S_empty_rep_storageE to i8*)
  br i1 %cmp.i.i87, label %_ZNSsD2Ev.exit97, label %if.then.i.i89, !prof !22

if.then.i.i89:                                    ; preds = %_ZNSsD2Ev.exit83
  %_M_refcount.i.i88 = getelementptr inbounds i8, i8* %23, i64 -8
  %26 = bitcast i8* %_M_refcount.i.i88 to i32*
  br i1 icmp ne (i8* bitcast (i32 (i32*, void (i8*)*)* @__pthread_key_create to i8*), i8* null), label %if.then.i.i.i90, label %if.else.i.i.i92

if.then.i.i.i90:                                  ; preds = %if.then.i.i89
  %27 = atomicrmw volatile add i32* %26, i32 -1 acq_rel
  br label %invoke.cont.i.i95

if.else.i.i.i92:                                  ; preds = %if.then.i.i89
  %28 = load i32, i32* %26, align 4, !tbaa !23
  %add.i.i.i.i91 = add nsw i32 %28, -1
  store i32 %add.i.i.i.i91, i32* %26, align 4, !tbaa !23
  br label %invoke.cont.i.i95

invoke.cont.i.i95:                                ; preds = %if.else.i.i.i92, %if.then.i.i.i90
  %retval.0.i.i.i93 = phi i32 [ %27, %if.then.i.i.i90 ], [ %28, %if.else.i.i.i92 ]
  %cmp3.i.i94 = icmp slt i32 %retval.0.i.i.i93, 1
  br i1 %cmp3.i.i94, label %if.then4.i.i96, label %_ZNSsD2Ev.exit97

if.then4.i.i96:                                   ; preds = %invoke.cont.i.i95
  call void @_ZNSs4_Rep10_M_destroyERKSaIcE(%"struct.std::basic_string<char, std::char_traits<char>, std::allocator<char> >::_Rep"* nonnull %24, %"class.std::ios_base::Init"* nonnull dereferenceable(1) %ref.tmp.i84) #3
  br label %_ZNSsD2Ev.exit97

_ZNSsD2Ev.exit97:                                 ; preds = %if.then4.i.i96, %invoke.cont.i.i95, %_ZNSsD2Ev.exit83
  call void @llvm.lifetime.end.p0i8(i64 1, i8* nonnull %25) #3
  call void @llvm.lifetime.end.p0i8(i64 1, i8* nonnull %2) #3
  br label %if.end30

lpad:                                             ; preds = %if.then5
  %29 = landingpad { i8*, i32 }
          cleanup
  %30 = extractvalue { i8*, i32 } %29, 0
  %31 = extractvalue { i8*, i32 } %29, 1
  br label %ehcleanup28

lpad11:                                           ; preds = %invoke.cont
  %32 = landingpad { i8*, i32 }
          cleanup
  %33 = extractvalue { i8*, i32 } %32, 0
  %34 = extractvalue { i8*, i32 } %32, 1
  br label %ehcleanup25

lpad15:                                           ; preds = %invoke.cont12
  %35 = landingpad { i8*, i32 }
          cleanup
  %36 = extractvalue { i8*, i32 } %35, 0
  %37 = extractvalue { i8*, i32 } %35, 1
  br label %ehcleanup

lpad17:                                           ; preds = %if.else.i, %if.then.i, %invoke.cont18, %invoke.cont16
  %38 = landingpad { i8*, i32 }
          cleanup
  %39 = extractvalue { i8*, i32 } %38, 0
  %40 = extractvalue { i8*, i32 } %38, 1
  %_M_p.i.i.i99 = getelementptr inbounds %"class.std::basic_string", %"class.std::basic_string"* %agg.tmp13, i64 0, i32 0, i32 0
  %41 = load i8*, i8** %_M_p.i.i.i99, align 8, !tbaa !17
  %arrayidx.i.i100 = getelementptr inbounds i8, i8* %41, i64 -24
  %42 = bitcast i8* %arrayidx.i.i100 to %"struct.std::basic_string<char, std::char_traits<char>, std::allocator<char> >::_Rep"*
  %43 = getelementptr inbounds %"class.std::ios_base::Init", %"class.std::ios_base::Init"* %ref.tmp.i98, i64 0, i32 0
  call void @llvm.lifetime.start.p0i8(i64 1, i8* nonnull %43) #3
  %cmp.i.i101 = icmp eq i8* %arrayidx.i.i100, bitcast ([0 x i64]* @_ZNSs4_Rep20_S_empty_rep_storageE to i8*)
  br i1 %cmp.i.i101, label %_ZNSsD2Ev.exit111, label %if.then.i.i103, !prof !22

if.then.i.i103:                                   ; preds = %lpad17
  %_M_refcount.i.i102 = getelementptr inbounds i8, i8* %41, i64 -8
  %44 = bitcast i8* %_M_refcount.i.i102 to i32*
  br i1 icmp ne (i8* bitcast (i32 (i32*, void (i8*)*)* @__pthread_key_create to i8*), i8* null), label %if.then.i.i.i104, label %if.else.i.i.i106

if.then.i.i.i104:                                 ; preds = %if.then.i.i103
  %45 = atomicrmw volatile add i32* %44, i32 -1 acq_rel
  br label %invoke.cont.i.i109

if.else.i.i.i106:                                 ; preds = %if.then.i.i103
  %46 = load i32, i32* %44, align 4, !tbaa !23
  %add.i.i.i.i105 = add nsw i32 %46, -1
  store i32 %add.i.i.i.i105, i32* %44, align 4, !tbaa !23
  br label %invoke.cont.i.i109

invoke.cont.i.i109:                               ; preds = %if.else.i.i.i106, %if.then.i.i.i104
  %retval.0.i.i.i107 = phi i32 [ %45, %if.then.i.i.i104 ], [ %46, %if.else.i.i.i106 ]
  %cmp3.i.i108 = icmp slt i32 %retval.0.i.i.i107, 1
  br i1 %cmp3.i.i108, label %if.then4.i.i110, label %_ZNSsD2Ev.exit111

if.then4.i.i110:                                  ; preds = %invoke.cont.i.i109
  call void @_ZNSs4_Rep10_M_destroyERKSaIcE(%"struct.std::basic_string<char, std::char_traits<char>, std::allocator<char> >::_Rep"* nonnull %42, %"class.std::ios_base::Init"* nonnull dereferenceable(1) %ref.tmp.i98) #3
  br label %_ZNSsD2Ev.exit111

_ZNSsD2Ev.exit111:                                ; preds = %if.then4.i.i110, %invoke.cont.i.i109, %lpad17
  call void @llvm.lifetime.end.p0i8(i64 1, i8* nonnull %43) #3
  br label %ehcleanup

ehcleanup:                                        ; preds = %_ZNSsD2Ev.exit111, %lpad15
  %exn.slot.0 = phi i8* [ %39, %_ZNSsD2Ev.exit111 ], [ %36, %lpad15 ]
  %ehselector.slot.0 = phi i32 [ %40, %_ZNSsD2Ev.exit111 ], [ %37, %lpad15 ]
  call void @llvm.lifetime.end.p0i8(i64 1, i8* nonnull %4) #3
  %_M_p.i.i.i116 = getelementptr inbounds %"class.std::basic_string", %"class.std::basic_string"* %agg.tmp9, i64 0, i32 0, i32 0
  %47 = load i8*, i8** %_M_p.i.i.i116, align 8, !tbaa !17
  %arrayidx.i.i117 = getelementptr inbounds i8, i8* %47, i64 -24
  %48 = bitcast i8* %arrayidx.i.i117 to %"struct.std::basic_string<char, std::char_traits<char>, std::allocator<char> >::_Rep"*
  %49 = getelementptr inbounds %"class.std::ios_base::Init", %"class.std::ios_base::Init"* %ref.tmp.i115, i64 0, i32 0
  call void @llvm.lifetime.start.p0i8(i64 1, i8* nonnull %49) #3
  %cmp.i.i118 = icmp eq i8* %arrayidx.i.i117, bitcast ([0 x i64]* @_ZNSs4_Rep20_S_empty_rep_storageE to i8*)
  br i1 %cmp.i.i118, label %_ZNSsD2Ev.exit128, label %if.then.i.i120, !prof !22

if.then.i.i120:                                   ; preds = %ehcleanup
  %_M_refcount.i.i119 = getelementptr inbounds i8, i8* %47, i64 -8
  %50 = bitcast i8* %_M_refcount.i.i119 to i32*
  br i1 icmp ne (i8* bitcast (i32 (i32*, void (i8*)*)* @__pthread_key_create to i8*), i8* null), label %if.then.i.i.i121, label %if.else.i.i.i123

if.then.i.i.i121:                                 ; preds = %if.then.i.i120
  %51 = atomicrmw volatile add i32* %50, i32 -1 acq_rel
  br label %invoke.cont.i.i126

if.else.i.i.i123:                                 ; preds = %if.then.i.i120
  %52 = load i32, i32* %50, align 4, !tbaa !23
  %add.i.i.i.i122 = add nsw i32 %52, -1
  store i32 %add.i.i.i.i122, i32* %50, align 4, !tbaa !23
  br label %invoke.cont.i.i126

invoke.cont.i.i126:                               ; preds = %if.else.i.i.i123, %if.then.i.i.i121
  %retval.0.i.i.i124 = phi i32 [ %51, %if.then.i.i.i121 ], [ %52, %if.else.i.i.i123 ]
  %cmp3.i.i125 = icmp slt i32 %retval.0.i.i.i124, 1
  br i1 %cmp3.i.i125, label %if.then4.i.i127, label %_ZNSsD2Ev.exit128

if.then4.i.i127:                                  ; preds = %invoke.cont.i.i126
  call void @_ZNSs4_Rep10_M_destroyERKSaIcE(%"struct.std::basic_string<char, std::char_traits<char>, std::allocator<char> >::_Rep"* nonnull %48, %"class.std::ios_base::Init"* nonnull dereferenceable(1) %ref.tmp.i115) #3
  br label %_ZNSsD2Ev.exit128

_ZNSsD2Ev.exit128:                                ; preds = %if.then4.i.i127, %invoke.cont.i.i126, %ehcleanup
  call void @llvm.lifetime.end.p0i8(i64 1, i8* nonnull %49) #3
  br label %ehcleanup25

ehcleanup25:                                      ; preds = %_ZNSsD2Ev.exit128, %lpad11
  %exn.slot.1 = phi i8* [ %exn.slot.0, %_ZNSsD2Ev.exit128 ], [ %33, %lpad11 ]
  %ehselector.slot.1 = phi i32 [ %ehselector.slot.0, %_ZNSsD2Ev.exit128 ], [ %34, %lpad11 ]
  call void @llvm.lifetime.end.p0i8(i64 1, i8* nonnull %3) #3
  %_M_p.i.i.i130 = getelementptr inbounds %"class.std::basic_string", %"class.std::basic_string"* %agg.tmp, i64 0, i32 0, i32 0
  %53 = load i8*, i8** %_M_p.i.i.i130, align 8, !tbaa !17
  %arrayidx.i.i131 = getelementptr inbounds i8, i8* %53, i64 -24
  %54 = bitcast i8* %arrayidx.i.i131 to %"struct.std::basic_string<char, std::char_traits<char>, std::allocator<char> >::_Rep"*
  %55 = getelementptr inbounds %"class.std::ios_base::Init", %"class.std::ios_base::Init"* %ref.tmp.i129, i64 0, i32 0
  call void @llvm.lifetime.start.p0i8(i64 1, i8* nonnull %55) #3
  %cmp.i.i132 = icmp eq i8* %arrayidx.i.i131, bitcast ([0 x i64]* @_ZNSs4_Rep20_S_empty_rep_storageE to i8*)
  br i1 %cmp.i.i132, label %_ZNSsD2Ev.exit142, label %if.then.i.i134, !prof !22

if.then.i.i134:                                   ; preds = %ehcleanup25
  %_M_refcount.i.i133 = getelementptr inbounds i8, i8* %53, i64 -8
  %56 = bitcast i8* %_M_refcount.i.i133 to i32*
  br i1 icmp ne (i8* bitcast (i32 (i32*, void (i8*)*)* @__pthread_key_create to i8*), i8* null), label %if.then.i.i.i135, label %if.else.i.i.i137

if.then.i.i.i135:                                 ; preds = %if.then.i.i134
  %57 = atomicrmw volatile add i32* %56, i32 -1 acq_rel
  br label %invoke.cont.i.i140

if.else.i.i.i137:                                 ; preds = %if.then.i.i134
  %58 = load i32, i32* %56, align 4, !tbaa !23
  %add.i.i.i.i136 = add nsw i32 %58, -1
  store i32 %add.i.i.i.i136, i32* %56, align 4, !tbaa !23
  br label %invoke.cont.i.i140

invoke.cont.i.i140:                               ; preds = %if.else.i.i.i137, %if.then.i.i.i135
  %retval.0.i.i.i138 = phi i32 [ %57, %if.then.i.i.i135 ], [ %58, %if.else.i.i.i137 ]
  %cmp3.i.i139 = icmp slt i32 %retval.0.i.i.i138, 1
  br i1 %cmp3.i.i139, label %if.then4.i.i141, label %_ZNSsD2Ev.exit142

if.then4.i.i141:                                  ; preds = %invoke.cont.i.i140
  call void @_ZNSs4_Rep10_M_destroyERKSaIcE(%"struct.std::basic_string<char, std::char_traits<char>, std::allocator<char> >::_Rep"* nonnull %54, %"class.std::ios_base::Init"* nonnull dereferenceable(1) %ref.tmp.i129) #3
  br label %_ZNSsD2Ev.exit142

_ZNSsD2Ev.exit142:                                ; preds = %if.then4.i.i141, %invoke.cont.i.i140, %ehcleanup25
  call void @llvm.lifetime.end.p0i8(i64 1, i8* nonnull %55) #3
  br label %ehcleanup28

ehcleanup28:                                      ; preds = %_ZNSsD2Ev.exit142, %lpad
  %exn.slot.2 = phi i8* [ %exn.slot.1, %_ZNSsD2Ev.exit142 ], [ %30, %lpad ]
  %ehselector.slot.2 = phi i32 [ %ehselector.slot.1, %_ZNSsD2Ev.exit142 ], [ %31, %lpad ]
  call void @llvm.lifetime.end.p0i8(i64 1, i8* nonnull %2) #3
  %lpad.val = insertvalue { i8*, i32 } undef, i8* %exn.slot.2, 0
  %lpad.val60 = insertvalue { i8*, i32 } %lpad.val, i32 %ehselector.slot.2, 1
  resume { i8*, i32 } %lpad.val60

if.end30:                                         ; preds = %_ZNSsD2Ev.exit97, %if.end2
  %call48 = call i32 @omp_get_thread_num() #3
  %idxprom49 = sext i32 %call48 to i64
  %arrayidx50 = getelementptr inbounds [1024 x %"class.std::basic_ofstream"], [1024 x %"class.std::basic_ofstream"]* @f2, i64 0, i64 %idxprom49
  %59 = bitcast %"class.std::basic_ofstream"* %arrayidx50 to %"class.std::basic_ostream"*
  br i1 %type, label %if.then47, label %if.then33

if.then33:                                        ; preds = %if.end30
  %call1.i151 = call dereferenceable(272) %"class.std::basic_ostream"* @_ZSt16__ostream_insertIcSt11char_traitsIcEERSt13basic_ostreamIT_T0_ES6_PKS3_l(%"class.std::basic_ostream"* nonnull dereferenceable(272) %59, i8* nonnull getelementptr inbounds ([3 x i8], [3 x i8]* @.str.14, i64 0, i64 0), i64 2)
  %tobool.i153 = icmp eq i8* %name, null
  br i1 %tobool.i153, label %if.then.i160, label %if.else.i163

if.then.i160:                                     ; preds = %if.then33
  %60 = bitcast %"class.std::basic_ofstream"* %arrayidx50 to i8**
  %vtable.i154 = load i8*, i8** %60, align 16, !tbaa !6
  %vbase.offset.ptr.i155 = getelementptr i8, i8* %vtable.i154, i64 -24
  %61 = bitcast i8* %vbase.offset.ptr.i155 to i64*
  %vbase.offset.i156 = load i64, i64* %61, align 8
  %62 = bitcast %"class.std::basic_ofstream"* %arrayidx50 to i8*
  %add.ptr.i157 = getelementptr inbounds i8, i8* %62, i64 %vbase.offset.i156
  %63 = bitcast i8* %add.ptr.i157 to %"class.std::basic_ios"*
  %_M_streambuf_state.i.i.i158 = getelementptr inbounds i8, i8* %add.ptr.i157, i64 32
  %64 = bitcast i8* %_M_streambuf_state.i.i.i158 to i32*
  %65 = load i32, i32* %64, align 8, !tbaa !8
  %or.i.i.i159 = or i32 %65, 1
  call void @_ZNSt9basic_iosIcSt11char_traitsIcEE5clearESt12_Ios_Iostate(%"class.std::basic_ios"* nonnull %63, i32 %or.i.i.i159)
  br label %if.end59

if.else.i163:                                     ; preds = %if.then33
  %call.i.i161 = call i64 @strlen(i8* nonnull %name) #3
  %call1.i162 = call dereferenceable(272) %"class.std::basic_ostream"* @_ZSt16__ostream_insertIcSt11char_traitsIcEERSt13basic_ostreamIT_T0_ES6_PKS3_l(%"class.std::basic_ostream"* nonnull dereferenceable(272) %59, i8* nonnull %name, i64 %call.i.i161)
  br label %if.end59

if.then47:                                        ; preds = %if.end30
  %call1.i176 = call dereferenceable(272) %"class.std::basic_ostream"* @_ZSt16__ostream_insertIcSt11char_traitsIcEERSt13basic_ostreamIT_T0_ES6_PKS3_l(%"class.std::basic_ostream"* nonnull dereferenceable(272) %59, i8* nonnull getelementptr inbounds ([3 x i8], [3 x i8]* @.str.15, i64 0, i64 0), i64 2)
  %tobool.i143 = icmp eq i8* %name, null
  br i1 %tobool.i143, label %if.then.i146, label %if.else.i149

if.then.i146:                                     ; preds = %if.then47
  %66 = bitcast %"class.std::basic_ofstream"* %arrayidx50 to i8**
  %vtable.i = load i8*, i8** %66, align 16, !tbaa !6
  %vbase.offset.ptr.i = getelementptr i8, i8* %vtable.i, i64 -24
  %67 = bitcast i8* %vbase.offset.ptr.i to i64*
  %vbase.offset.i = load i64, i64* %67, align 8
  %68 = bitcast %"class.std::basic_ofstream"* %arrayidx50 to i8*
  %add.ptr.i = getelementptr inbounds i8, i8* %68, i64 %vbase.offset.i
  %69 = bitcast i8* %add.ptr.i to %"class.std::basic_ios"*
  %_M_streambuf_state.i.i.i144 = getelementptr inbounds i8, i8* %add.ptr.i, i64 32
  %70 = bitcast i8* %_M_streambuf_state.i.i.i144 to i32*
  %71 = load i32, i32* %70, align 8, !tbaa !8
  %or.i.i.i145 = or i32 %71, 1
  call void @_ZNSt9basic_iosIcSt11char_traitsIcEE5clearESt12_Ios_Iostate(%"class.std::basic_ios"* nonnull %69, i32 %or.i.i.i145)
  br label %if.end59

if.else.i149:                                     ; preds = %if.then47
  %call.i.i147 = call i64 @strlen(i8* nonnull %name) #3
  %call1.i148 = call dereferenceable(272) %"class.std::basic_ostream"* @_ZSt16__ostream_insertIcSt11char_traitsIcEERSt13basic_ostreamIT_T0_ES6_PKS3_l(%"class.std::basic_ostream"* nonnull dereferenceable(272) %59, i8* nonnull %name, i64 %call.i.i147)
  br label %if.end59

if.end59:                                         ; preds = %if.else.i149, %if.then.i146, %if.else.i163, %if.then.i160
  %call1.i113 = call dereferenceable(272) %"class.std::basic_ostream"* @_ZSt16__ostream_insertIcSt11char_traitsIcEERSt13basic_ostreamIT_T0_ES6_PKS3_l(%"class.std::basic_ostream"* nonnull dereferenceable(272) %59, i8* nonnull getelementptr inbounds ([2 x i8], [2 x i8]* @.str.9, i64 0, i64 0), i64 1)
  %call.i = call dereferenceable(272) %"class.std::basic_ostream"* @_ZNSo9_M_insertIxEERSoT_(%"class.std::basic_ostream"* nonnull %59, i64 %addr)
  %call1.i67 = call dereferenceable(272) %"class.std::basic_ostream"* @_ZSt16__ostream_insertIcSt11char_traitsIcEERSt13basic_ostreamIT_T0_ES6_PKS3_l(%"class.std::basic_ostream"* nonnull dereferenceable(272) %call.i, i8* nonnull getelementptr inbounds ([2 x i8], [2 x i8]* @.str.9, i64 0, i64 0), i64 1)
  %call56 = call dereferenceable(272) %"class.std::basic_ostream"* @_ZNSolsEi(%"class.std::basic_ostream"* nonnull %call.i, i32 %size)
  %call1.i = call dereferenceable(272) %"class.std::basic_ostream"* @_ZSt16__ostream_insertIcSt11char_traitsIcEERSt13basic_ostreamIT_T0_ES6_PKS3_l(%"class.std::basic_ostream"* nonnull dereferenceable(272) %call56, i8* nonnull getelementptr inbounds ([2 x i8], [2 x i8]* @.str.1, i64 0, i64 0), i64 1)
  ret void
}

declare dso_local dereferenceable(272) %"class.std::basic_ostream"* @_ZNSo9_M_insertIxEERSoT_(%"class.std::basic_ostream"*, i64) local_unnamed_addr #1

; Function Attrs: noinline uwtable
define dso_local void @print_matmul(i8* %acc_kernel_name, i8* %kernel_type, i8* %run_dir, i8* %node_id, i32 %rowsA, i32 %colsA, i32 %rowsB, i32 %colsB, i32 %batch_size) #6 personality i8* bitcast (i32 (...)* @__gxx_personality_v0 to i8*) {
entry:
  %ref.tmp.i111 = alloca %"class.std::ios_base::Init", align 1
  %ref.tmp.i94 = alloca %"class.std::ios_base::Init", align 1
  %ref.tmp.i80 = alloca %"class.std::ios_base::Init", align 1
  %ref.tmp.i63 = alloca %"class.std::ios_base::Init", align 1
  %ref.tmp.i49 = alloca %"class.std::ios_base::Init", align 1
  %ref.tmp.i = alloca %"class.std::ios_base::Init", align 1
  %agg.tmp = alloca %"class.std::basic_string", align 8
  %ref.tmp = alloca %"class.std::ios_base::Init", align 1
  %agg.tmp5 = alloca %"class.std::basic_string", align 8
  %ref.tmp6 = alloca %"class.std::ios_base::Init", align 1
  %agg.tmp9 = alloca %"class.std::basic_string", align 8
  %ref.tmp10 = alloca %"class.std::ios_base::Init", align 1
  %call = tail call i32 @omp_get_thread_num() #3
  %idxprom = sext i32 %call to i64
  %_M_file.i.i = getelementptr inbounds [1024 x %"class.std::basic_ofstream"], [1024 x %"class.std::basic_ofstream"]* @f3, i64 0, i64 %idxprom, i32 1, i32 2
  %call.i.i = tail call zeroext i1 @_ZNKSt12__basic_fileIcE7is_openEv(%"class.std::__basic_file"* nonnull %_M_file.i.i) #22
  br i1 %call.i.i, label %if.end, label %if.then

if.then:                                          ; preds = %entry
  %call2 = tail call i32 @omp_get_thread_num() #3
  %idxprom3 = sext i32 %call2 to i64
  %arrayidx4 = getelementptr inbounds [1024 x %"class.std::basic_ofstream"], [1024 x %"class.std::basic_ofstream"]* @f3, i64 0, i64 %idxprom3
  %0 = getelementptr inbounds %"class.std::ios_base::Init", %"class.std::ios_base::Init"* %ref.tmp, i64 0, i32 0
  call void @llvm.lifetime.start.p0i8(i64 1, i8* nonnull %0) #3
  invoke void @_ZNSsC1EPKcRKSaIcE(%"class.std::basic_string"* nonnull %agg.tmp, i8* %run_dir, %"class.std::ios_base::Init"* nonnull dereferenceable(1) %ref.tmp)
          to label %invoke.cont unwind label %lpad

invoke.cont:                                      ; preds = %if.then
  %1 = getelementptr inbounds %"class.std::ios_base::Init", %"class.std::ios_base::Init"* %ref.tmp6, i64 0, i32 0
  call void @llvm.lifetime.start.p0i8(i64 1, i8* nonnull %1) #3
  invoke void @_ZNSsC1EPKcRKSaIcE(%"class.std::basic_string"* nonnull %agg.tmp5, i8* %kernel_type, %"class.std::ios_base::Init"* nonnull dereferenceable(1) %ref.tmp6)
          to label %invoke.cont8 unwind label %lpad7

invoke.cont8:                                     ; preds = %invoke.cont
  %2 = getelementptr inbounds %"class.std::ios_base::Init", %"class.std::ios_base::Init"* %ref.tmp10, i64 0, i32 0
  call void @llvm.lifetime.start.p0i8(i64 1, i8* nonnull %2) #3
  invoke void @_ZNSsC1EPKcRKSaIcE(%"class.std::basic_string"* nonnull %agg.tmp9, i8* getelementptr inbounds ([8 x i8], [8 x i8]* @.str.16, i64 0, i64 0), %"class.std::ios_base::Init"* nonnull dereferenceable(1) %ref.tmp10)
          to label %invoke.cont12 unwind label %lpad11

invoke.cont12:                                    ; preds = %invoke.cont8
  %call15 = invoke i8* @_Z12get_dir_nameSsSsSs(%"class.std::basic_string"* nonnull %agg.tmp, %"class.std::basic_string"* nonnull %agg.tmp5, %"class.std::basic_string"* nonnull %agg.tmp9)
          to label %invoke.cont14 unwind label %lpad13

invoke.cont14:                                    ; preds = %invoke.cont12
  %_M_filebuf.i = getelementptr inbounds [1024 x %"class.std::basic_ofstream"], [1024 x %"class.std::basic_ofstream"]* @f3, i64 0, i64 %idxprom3, i32 1
  %call2.i47 = invoke %"class.std::basic_filebuf"* @_ZNSt13basic_filebufIcSt11char_traitsIcEE4openEPKcSt13_Ios_Openmode(%"class.std::basic_filebuf"* nonnull %_M_filebuf.i, i8* %call15, i32 17)
          to label %call2.i.noexc unwind label %lpad13

call2.i.noexc:                                    ; preds = %invoke.cont14
  %tobool.i = icmp eq %"class.std::basic_filebuf"* %call2.i47, null
  %3 = bitcast %"class.std::basic_ofstream"* %arrayidx4 to i8**
  %vtable3.i = load i8*, i8** %3, align 16, !tbaa !6
  %vbase.offset.ptr4.i = getelementptr i8, i8* %vtable3.i, i64 -24
  %4 = bitcast i8* %vbase.offset.ptr4.i to i64*
  %vbase.offset5.i = load i64, i64* %4, align 8
  %5 = bitcast %"class.std::basic_ofstream"* %arrayidx4 to i8*
  %add.ptr6.i = getelementptr inbounds i8, i8* %5, i64 %vbase.offset5.i
  %6 = bitcast i8* %add.ptr6.i to %"class.std::basic_ios"*
  br i1 %tobool.i, label %if.then.i, label %if.else.i

if.then.i:                                        ; preds = %call2.i.noexc
  %_M_streambuf_state.i.i.i = getelementptr inbounds i8, i8* %add.ptr6.i, i64 32
  %7 = bitcast i8* %_M_streambuf_state.i.i.i to i32*
  %8 = load i32, i32* %7, align 8, !tbaa !8
  %or.i.i.i = or i32 %8, 4
  invoke void @_ZNSt9basic_iosIcSt11char_traitsIcEE5clearESt12_Ios_Iostate(%"class.std::basic_ios"* nonnull %6, i32 %or.i.i.i)
          to label %invoke.cont18 unwind label %lpad13

if.else.i:                                        ; preds = %call2.i.noexc
  invoke void @_ZNSt9basic_iosIcSt11char_traitsIcEE5clearESt12_Ios_Iostate(%"class.std::basic_ios"* nonnull %6, i32 0)
          to label %invoke.cont18 unwind label %lpad13

invoke.cont18:                                    ; preds = %if.else.i, %if.then.i
  %_M_p.i.i.i = getelementptr inbounds %"class.std::basic_string", %"class.std::basic_string"* %agg.tmp9, i64 0, i32 0, i32 0
  %9 = load i8*, i8** %_M_p.i.i.i, align 8, !tbaa !17
  %arrayidx.i.i = getelementptr inbounds i8, i8* %9, i64 -24
  %10 = bitcast i8* %arrayidx.i.i to %"struct.std::basic_string<char, std::char_traits<char>, std::allocator<char> >::_Rep"*
  %11 = getelementptr inbounds %"class.std::ios_base::Init", %"class.std::ios_base::Init"* %ref.tmp.i, i64 0, i32 0
  call void @llvm.lifetime.start.p0i8(i64 1, i8* nonnull %11) #3
  %cmp.i.i = icmp eq i8* %arrayidx.i.i, bitcast ([0 x i64]* @_ZNSs4_Rep20_S_empty_rep_storageE to i8*)
  br i1 %cmp.i.i, label %_ZNSsD2Ev.exit, label %if.then.i.i, !prof !22

if.then.i.i:                                      ; preds = %invoke.cont18
  %_M_refcount.i.i = getelementptr inbounds i8, i8* %9, i64 -8
  %12 = bitcast i8* %_M_refcount.i.i to i32*
  br i1 icmp ne (i8* bitcast (i32 (i32*, void (i8*)*)* @__pthread_key_create to i8*), i8* null), label %if.then.i.i.i, label %if.else.i.i.i

if.then.i.i.i:                                    ; preds = %if.then.i.i
  %13 = atomicrmw volatile add i32* %12, i32 -1 acq_rel
  br label %invoke.cont.i.i

if.else.i.i.i:                                    ; preds = %if.then.i.i
  %14 = load i32, i32* %12, align 4, !tbaa !23
  %add.i.i.i.i = add nsw i32 %14, -1
  store i32 %add.i.i.i.i, i32* %12, align 4, !tbaa !23
  br label %invoke.cont.i.i

invoke.cont.i.i:                                  ; preds = %if.else.i.i.i, %if.then.i.i.i
  %retval.0.i.i.i = phi i32 [ %13, %if.then.i.i.i ], [ %14, %if.else.i.i.i ]
  %cmp3.i.i = icmp slt i32 %retval.0.i.i.i, 1
  br i1 %cmp3.i.i, label %if.then4.i.i, label %_ZNSsD2Ev.exit

if.then4.i.i:                                     ; preds = %invoke.cont.i.i
  call void @_ZNSs4_Rep10_M_destroyERKSaIcE(%"struct.std::basic_string<char, std::char_traits<char>, std::allocator<char> >::_Rep"* nonnull %10, %"class.std::ios_base::Init"* nonnull dereferenceable(1) %ref.tmp.i) #3
  br label %_ZNSsD2Ev.exit

_ZNSsD2Ev.exit:                                   ; preds = %if.then4.i.i, %invoke.cont.i.i, %invoke.cont18
  call void @llvm.lifetime.end.p0i8(i64 1, i8* nonnull %11) #3
  call void @llvm.lifetime.end.p0i8(i64 1, i8* nonnull %2) #3
  %_M_p.i.i.i50 = getelementptr inbounds %"class.std::basic_string", %"class.std::basic_string"* %agg.tmp5, i64 0, i32 0, i32 0
  %15 = load i8*, i8** %_M_p.i.i.i50, align 8, !tbaa !17
  %arrayidx.i.i51 = getelementptr inbounds i8, i8* %15, i64 -24
  %16 = bitcast i8* %arrayidx.i.i51 to %"struct.std::basic_string<char, std::char_traits<char>, std::allocator<char> >::_Rep"*
  %17 = getelementptr inbounds %"class.std::ios_base::Init", %"class.std::ios_base::Init"* %ref.tmp.i49, i64 0, i32 0
  call void @llvm.lifetime.start.p0i8(i64 1, i8* nonnull %17) #3
  %cmp.i.i52 = icmp eq i8* %arrayidx.i.i51, bitcast ([0 x i64]* @_ZNSs4_Rep20_S_empty_rep_storageE to i8*)
  br i1 %cmp.i.i52, label %_ZNSsD2Ev.exit62, label %if.then.i.i54, !prof !22

if.then.i.i54:                                    ; preds = %_ZNSsD2Ev.exit
  %_M_refcount.i.i53 = getelementptr inbounds i8, i8* %15, i64 -8
  %18 = bitcast i8* %_M_refcount.i.i53 to i32*
  br i1 icmp ne (i8* bitcast (i32 (i32*, void (i8*)*)* @__pthread_key_create to i8*), i8* null), label %if.then.i.i.i55, label %if.else.i.i.i57

if.then.i.i.i55:                                  ; preds = %if.then.i.i54
  %19 = atomicrmw volatile add i32* %18, i32 -1 acq_rel
  br label %invoke.cont.i.i60

if.else.i.i.i57:                                  ; preds = %if.then.i.i54
  %20 = load i32, i32* %18, align 4, !tbaa !23
  %add.i.i.i.i56 = add nsw i32 %20, -1
  store i32 %add.i.i.i.i56, i32* %18, align 4, !tbaa !23
  br label %invoke.cont.i.i60

invoke.cont.i.i60:                                ; preds = %if.else.i.i.i57, %if.then.i.i.i55
  %retval.0.i.i.i58 = phi i32 [ %19, %if.then.i.i.i55 ], [ %20, %if.else.i.i.i57 ]
  %cmp3.i.i59 = icmp slt i32 %retval.0.i.i.i58, 1
  br i1 %cmp3.i.i59, label %if.then4.i.i61, label %_ZNSsD2Ev.exit62

if.then4.i.i61:                                   ; preds = %invoke.cont.i.i60
  call void @_ZNSs4_Rep10_M_destroyERKSaIcE(%"struct.std::basic_string<char, std::char_traits<char>, std::allocator<char> >::_Rep"* nonnull %16, %"class.std::ios_base::Init"* nonnull dereferenceable(1) %ref.tmp.i49) #3
  br label %_ZNSsD2Ev.exit62

_ZNSsD2Ev.exit62:                                 ; preds = %if.then4.i.i61, %invoke.cont.i.i60, %_ZNSsD2Ev.exit
  call void @llvm.lifetime.end.p0i8(i64 1, i8* nonnull %17) #3
  call void @llvm.lifetime.end.p0i8(i64 1, i8* nonnull %1) #3
  %_M_p.i.i.i64 = getelementptr inbounds %"class.std::basic_string", %"class.std::basic_string"* %agg.tmp, i64 0, i32 0, i32 0
  %21 = load i8*, i8** %_M_p.i.i.i64, align 8, !tbaa !17
  %arrayidx.i.i65 = getelementptr inbounds i8, i8* %21, i64 -24
  %22 = bitcast i8* %arrayidx.i.i65 to %"struct.std::basic_string<char, std::char_traits<char>, std::allocator<char> >::_Rep"*
  %23 = getelementptr inbounds %"class.std::ios_base::Init", %"class.std::ios_base::Init"* %ref.tmp.i63, i64 0, i32 0
  call void @llvm.lifetime.start.p0i8(i64 1, i8* nonnull %23) #3
  %cmp.i.i66 = icmp eq i8* %arrayidx.i.i65, bitcast ([0 x i64]* @_ZNSs4_Rep20_S_empty_rep_storageE to i8*)
  br i1 %cmp.i.i66, label %_ZNSsD2Ev.exit76, label %if.then.i.i68, !prof !22

if.then.i.i68:                                    ; preds = %_ZNSsD2Ev.exit62
  %_M_refcount.i.i67 = getelementptr inbounds i8, i8* %21, i64 -8
  %24 = bitcast i8* %_M_refcount.i.i67 to i32*
  br i1 icmp ne (i8* bitcast (i32 (i32*, void (i8*)*)* @__pthread_key_create to i8*), i8* null), label %if.then.i.i.i69, label %if.else.i.i.i71

if.then.i.i.i69:                                  ; preds = %if.then.i.i68
  %25 = atomicrmw volatile add i32* %24, i32 -1 acq_rel
  br label %invoke.cont.i.i74

if.else.i.i.i71:                                  ; preds = %if.then.i.i68
  %26 = load i32, i32* %24, align 4, !tbaa !23
  %add.i.i.i.i70 = add nsw i32 %26, -1
  store i32 %add.i.i.i.i70, i32* %24, align 4, !tbaa !23
  br label %invoke.cont.i.i74

invoke.cont.i.i74:                                ; preds = %if.else.i.i.i71, %if.then.i.i.i69
  %retval.0.i.i.i72 = phi i32 [ %25, %if.then.i.i.i69 ], [ %26, %if.else.i.i.i71 ]
  %cmp3.i.i73 = icmp slt i32 %retval.0.i.i.i72, 1
  br i1 %cmp3.i.i73, label %if.then4.i.i75, label %_ZNSsD2Ev.exit76

if.then4.i.i75:                                   ; preds = %invoke.cont.i.i74
  call void @_ZNSs4_Rep10_M_destroyERKSaIcE(%"struct.std::basic_string<char, std::char_traits<char>, std::allocator<char> >::_Rep"* nonnull %22, %"class.std::ios_base::Init"* nonnull dereferenceable(1) %ref.tmp.i63) #3
  br label %_ZNSsD2Ev.exit76

_ZNSsD2Ev.exit76:                                 ; preds = %if.then4.i.i75, %invoke.cont.i.i74, %_ZNSsD2Ev.exit62
  call void @llvm.lifetime.end.p0i8(i64 1, i8* nonnull %23) #3
  call void @llvm.lifetime.end.p0i8(i64 1, i8* nonnull %0) #3
  br label %if.end

lpad:                                             ; preds = %if.then
  %27 = landingpad { i8*, i32 }
          cleanup
  %28 = extractvalue { i8*, i32 } %27, 0
  %29 = extractvalue { i8*, i32 } %27, 1
  br label %ehcleanup24

lpad7:                                            ; preds = %invoke.cont
  %30 = landingpad { i8*, i32 }
          cleanup
  %31 = extractvalue { i8*, i32 } %30, 0
  %32 = extractvalue { i8*, i32 } %30, 1
  br label %ehcleanup21

lpad11:                                           ; preds = %invoke.cont8
  %33 = landingpad { i8*, i32 }
          cleanup
  %34 = extractvalue { i8*, i32 } %33, 0
  %35 = extractvalue { i8*, i32 } %33, 1
  br label %ehcleanup

lpad13:                                           ; preds = %if.else.i, %if.then.i, %invoke.cont14, %invoke.cont12
  %36 = landingpad { i8*, i32 }
          cleanup
  %37 = extractvalue { i8*, i32 } %36, 0
  %38 = extractvalue { i8*, i32 } %36, 1
  %_M_p.i.i.i81 = getelementptr inbounds %"class.std::basic_string", %"class.std::basic_string"* %agg.tmp9, i64 0, i32 0, i32 0
  %39 = load i8*, i8** %_M_p.i.i.i81, align 8, !tbaa !17
  %arrayidx.i.i82 = getelementptr inbounds i8, i8* %39, i64 -24
  %40 = bitcast i8* %arrayidx.i.i82 to %"struct.std::basic_string<char, std::char_traits<char>, std::allocator<char> >::_Rep"*
  %41 = getelementptr inbounds %"class.std::ios_base::Init", %"class.std::ios_base::Init"* %ref.tmp.i80, i64 0, i32 0
  call void @llvm.lifetime.start.p0i8(i64 1, i8* nonnull %41) #3
  %cmp.i.i83 = icmp eq i8* %arrayidx.i.i82, bitcast ([0 x i64]* @_ZNSs4_Rep20_S_empty_rep_storageE to i8*)
  br i1 %cmp.i.i83, label %_ZNSsD2Ev.exit93, label %if.then.i.i85, !prof !22

if.then.i.i85:                                    ; preds = %lpad13
  %_M_refcount.i.i84 = getelementptr inbounds i8, i8* %39, i64 -8
  %42 = bitcast i8* %_M_refcount.i.i84 to i32*
  br i1 icmp ne (i8* bitcast (i32 (i32*, void (i8*)*)* @__pthread_key_create to i8*), i8* null), label %if.then.i.i.i86, label %if.else.i.i.i88

if.then.i.i.i86:                                  ; preds = %if.then.i.i85
  %43 = atomicrmw volatile add i32* %42, i32 -1 acq_rel
  br label %invoke.cont.i.i91

if.else.i.i.i88:                                  ; preds = %if.then.i.i85
  %44 = load i32, i32* %42, align 4, !tbaa !23
  %add.i.i.i.i87 = add nsw i32 %44, -1
  store i32 %add.i.i.i.i87, i32* %42, align 4, !tbaa !23
  br label %invoke.cont.i.i91

invoke.cont.i.i91:                                ; preds = %if.else.i.i.i88, %if.then.i.i.i86
  %retval.0.i.i.i89 = phi i32 [ %43, %if.then.i.i.i86 ], [ %44, %if.else.i.i.i88 ]
  %cmp3.i.i90 = icmp slt i32 %retval.0.i.i.i89, 1
  br i1 %cmp3.i.i90, label %if.then4.i.i92, label %_ZNSsD2Ev.exit93

if.then4.i.i92:                                   ; preds = %invoke.cont.i.i91
  call void @_ZNSs4_Rep10_M_destroyERKSaIcE(%"struct.std::basic_string<char, std::char_traits<char>, std::allocator<char> >::_Rep"* nonnull %40, %"class.std::ios_base::Init"* nonnull dereferenceable(1) %ref.tmp.i80) #3
  br label %_ZNSsD2Ev.exit93

_ZNSsD2Ev.exit93:                                 ; preds = %if.then4.i.i92, %invoke.cont.i.i91, %lpad13
  call void @llvm.lifetime.end.p0i8(i64 1, i8* nonnull %41) #3
  br label %ehcleanup

ehcleanup:                                        ; preds = %_ZNSsD2Ev.exit93, %lpad11
  %exn.slot.0 = phi i8* [ %37, %_ZNSsD2Ev.exit93 ], [ %34, %lpad11 ]
  %ehselector.slot.0 = phi i32 [ %38, %_ZNSsD2Ev.exit93 ], [ %35, %lpad11 ]
  call void @llvm.lifetime.end.p0i8(i64 1, i8* nonnull %2) #3
  %_M_p.i.i.i95 = getelementptr inbounds %"class.std::basic_string", %"class.std::basic_string"* %agg.tmp5, i64 0, i32 0, i32 0
  %45 = load i8*, i8** %_M_p.i.i.i95, align 8, !tbaa !17
  %arrayidx.i.i96 = getelementptr inbounds i8, i8* %45, i64 -24
  %46 = bitcast i8* %arrayidx.i.i96 to %"struct.std::basic_string<char, std::char_traits<char>, std::allocator<char> >::_Rep"*
  %47 = getelementptr inbounds %"class.std::ios_base::Init", %"class.std::ios_base::Init"* %ref.tmp.i94, i64 0, i32 0
  call void @llvm.lifetime.start.p0i8(i64 1, i8* nonnull %47) #3
  %cmp.i.i97 = icmp eq i8* %arrayidx.i.i96, bitcast ([0 x i64]* @_ZNSs4_Rep20_S_empty_rep_storageE to i8*)
  br i1 %cmp.i.i97, label %_ZNSsD2Ev.exit107, label %if.then.i.i99, !prof !22

if.then.i.i99:                                    ; preds = %ehcleanup
  %_M_refcount.i.i98 = getelementptr inbounds i8, i8* %45, i64 -8
  %48 = bitcast i8* %_M_refcount.i.i98 to i32*
  br i1 icmp ne (i8* bitcast (i32 (i32*, void (i8*)*)* @__pthread_key_create to i8*), i8* null), label %if.then.i.i.i100, label %if.else.i.i.i102

if.then.i.i.i100:                                 ; preds = %if.then.i.i99
  %49 = atomicrmw volatile add i32* %48, i32 -1 acq_rel
  br label %invoke.cont.i.i105

if.else.i.i.i102:                                 ; preds = %if.then.i.i99
  %50 = load i32, i32* %48, align 4, !tbaa !23
  %add.i.i.i.i101 = add nsw i32 %50, -1
  store i32 %add.i.i.i.i101, i32* %48, align 4, !tbaa !23
  br label %invoke.cont.i.i105

invoke.cont.i.i105:                               ; preds = %if.else.i.i.i102, %if.then.i.i.i100
  %retval.0.i.i.i103 = phi i32 [ %49, %if.then.i.i.i100 ], [ %50, %if.else.i.i.i102 ]
  %cmp3.i.i104 = icmp slt i32 %retval.0.i.i.i103, 1
  br i1 %cmp3.i.i104, label %if.then4.i.i106, label %_ZNSsD2Ev.exit107

if.then4.i.i106:                                  ; preds = %invoke.cont.i.i105
  call void @_ZNSs4_Rep10_M_destroyERKSaIcE(%"struct.std::basic_string<char, std::char_traits<char>, std::allocator<char> >::_Rep"* nonnull %46, %"class.std::ios_base::Init"* nonnull dereferenceable(1) %ref.tmp.i94) #3
  br label %_ZNSsD2Ev.exit107

_ZNSsD2Ev.exit107:                                ; preds = %if.then4.i.i106, %invoke.cont.i.i105, %ehcleanup
  call void @llvm.lifetime.end.p0i8(i64 1, i8* nonnull %47) #3
  br label %ehcleanup21

ehcleanup21:                                      ; preds = %_ZNSsD2Ev.exit107, %lpad7
  %exn.slot.1 = phi i8* [ %exn.slot.0, %_ZNSsD2Ev.exit107 ], [ %31, %lpad7 ]
  %ehselector.slot.1 = phi i32 [ %ehselector.slot.0, %_ZNSsD2Ev.exit107 ], [ %32, %lpad7 ]
  call void @llvm.lifetime.end.p0i8(i64 1, i8* nonnull %1) #3
  %_M_p.i.i.i112 = getelementptr inbounds %"class.std::basic_string", %"class.std::basic_string"* %agg.tmp, i64 0, i32 0, i32 0
  %51 = load i8*, i8** %_M_p.i.i.i112, align 8, !tbaa !17
  %arrayidx.i.i113 = getelementptr inbounds i8, i8* %51, i64 -24
  %52 = bitcast i8* %arrayidx.i.i113 to %"struct.std::basic_string<char, std::char_traits<char>, std::allocator<char> >::_Rep"*
  %53 = getelementptr inbounds %"class.std::ios_base::Init", %"class.std::ios_base::Init"* %ref.tmp.i111, i64 0, i32 0
  call void @llvm.lifetime.start.p0i8(i64 1, i8* nonnull %53) #3
  %cmp.i.i114 = icmp eq i8* %arrayidx.i.i113, bitcast ([0 x i64]* @_ZNSs4_Rep20_S_empty_rep_storageE to i8*)
  br i1 %cmp.i.i114, label %_ZNSsD2Ev.exit124, label %if.then.i.i116, !prof !22

if.then.i.i116:                                   ; preds = %ehcleanup21
  %_M_refcount.i.i115 = getelementptr inbounds i8, i8* %51, i64 -8
  %54 = bitcast i8* %_M_refcount.i.i115 to i32*
  br i1 icmp ne (i8* bitcast (i32 (i32*, void (i8*)*)* @__pthread_key_create to i8*), i8* null), label %if.then.i.i.i117, label %if.else.i.i.i119

if.then.i.i.i117:                                 ; preds = %if.then.i.i116
  %55 = atomicrmw volatile add i32* %54, i32 -1 acq_rel
  br label %invoke.cont.i.i122

if.else.i.i.i119:                                 ; preds = %if.then.i.i116
  %56 = load i32, i32* %54, align 4, !tbaa !23
  %add.i.i.i.i118 = add nsw i32 %56, -1
  store i32 %add.i.i.i.i118, i32* %54, align 4, !tbaa !23
  br label %invoke.cont.i.i122

invoke.cont.i.i122:                               ; preds = %if.else.i.i.i119, %if.then.i.i.i117
  %retval.0.i.i.i120 = phi i32 [ %55, %if.then.i.i.i117 ], [ %56, %if.else.i.i.i119 ]
  %cmp3.i.i121 = icmp slt i32 %retval.0.i.i.i120, 1
  br i1 %cmp3.i.i121, label %if.then4.i.i123, label %_ZNSsD2Ev.exit124

if.then4.i.i123:                                  ; preds = %invoke.cont.i.i122
  call void @_ZNSs4_Rep10_M_destroyERKSaIcE(%"struct.std::basic_string<char, std::char_traits<char>, std::allocator<char> >::_Rep"* nonnull %52, %"class.std::ios_base::Init"* nonnull dereferenceable(1) %ref.tmp.i111) #3
  br label %_ZNSsD2Ev.exit124

_ZNSsD2Ev.exit124:                                ; preds = %if.then4.i.i123, %invoke.cont.i.i122, %ehcleanup21
  call void @llvm.lifetime.end.p0i8(i64 1, i8* nonnull %53) #3
  br label %ehcleanup24

ehcleanup24:                                      ; preds = %_ZNSsD2Ev.exit124, %lpad
  %exn.slot.2 = phi i8* [ %exn.slot.1, %_ZNSsD2Ev.exit124 ], [ %28, %lpad ]
  %ehselector.slot.2 = phi i32 [ %ehselector.slot.1, %_ZNSsD2Ev.exit124 ], [ %29, %lpad ]
  call void @llvm.lifetime.end.p0i8(i64 1, i8* nonnull %0) #3
  %lpad.val = insertvalue { i8*, i32 } undef, i8* %exn.slot.2, 0
  %lpad.val43 = insertvalue { i8*, i32 } %lpad.val, i32 %ehselector.slot.2, 1
  resume { i8*, i32 } %lpad.val43

if.end:                                           ; preds = %_ZNSsD2Ev.exit76, %entry
  %call26 = call i32 @omp_get_thread_num() #3
  %idxprom27 = sext i32 %call26 to i64
  %arrayidx28 = getelementptr inbounds [1024 x %"class.std::basic_ofstream"], [1024 x %"class.std::basic_ofstream"]* @f3, i64 0, i64 %idxprom27
  %57 = bitcast %"class.std::basic_ofstream"* %arrayidx28 to %"class.std::basic_ostream"*
  %tobool.i125 = icmp eq i8* %acc_kernel_name, null
  br i1 %tobool.i125, label %if.then.i128, label %if.else.i131

if.then.i128:                                     ; preds = %if.end
  %58 = bitcast %"class.std::basic_ofstream"* %arrayidx28 to i8**
  %vtable.i = load i8*, i8** %58, align 16, !tbaa !6
  %vbase.offset.ptr.i = getelementptr i8, i8* %vtable.i, i64 -24
  %59 = bitcast i8* %vbase.offset.ptr.i to i64*
  %vbase.offset.i = load i64, i64* %59, align 8
  %60 = bitcast %"class.std::basic_ofstream"* %arrayidx28 to i8*
  %add.ptr.i = getelementptr inbounds i8, i8* %60, i64 %vbase.offset.i
  %61 = bitcast i8* %add.ptr.i to %"class.std::basic_ios"*
  %_M_streambuf_state.i.i.i126 = getelementptr inbounds i8, i8* %add.ptr.i, i64 32
  %62 = bitcast i8* %_M_streambuf_state.i.i.i126 to i32*
  %63 = load i32, i32* %62, align 8, !tbaa !8
  %or.i.i.i127 = or i32 %63, 1
  call void @_ZNSt9basic_iosIcSt11char_traitsIcEE5clearESt12_Ios_Iostate(%"class.std::basic_ios"* nonnull %61, i32 %or.i.i.i127)
  br label %_ZStlsISt11char_traitsIcEERSt13basic_ostreamIcT_ES5_PKc.exit

if.else.i131:                                     ; preds = %if.end
  %call.i.i129 = call i64 @strlen(i8* nonnull %acc_kernel_name) #3
  %call1.i130 = call dereferenceable(272) %"class.std::basic_ostream"* @_ZSt16__ostream_insertIcSt11char_traitsIcEERSt13basic_ostreamIT_T0_ES6_PKS3_l(%"class.std::basic_ostream"* nonnull dereferenceable(272) %57, i8* nonnull %acc_kernel_name, i64 %call.i.i129)
  br label %_ZStlsISt11char_traitsIcEERSt13basic_ostreamIcT_ES5_PKc.exit

_ZStlsISt11char_traitsIcEERSt13basic_ostreamIcT_ES5_PKc.exit: ; preds = %if.else.i131, %if.then.i128
  %call1.i133 = call dereferenceable(272) %"class.std::basic_ostream"* @_ZSt16__ostream_insertIcSt11char_traitsIcEERSt13basic_ostreamIT_T0_ES6_PKS3_l(%"class.std::basic_ostream"* nonnull dereferenceable(272) %57, i8* nonnull getelementptr inbounds ([2 x i8], [2 x i8]* @.str.9, i64 0, i64 0), i64 1)
  %tobool.i135 = icmp eq i8* %node_id, null
  br i1 %tobool.i135, label %if.then.i142, label %if.else.i145

if.then.i142:                                     ; preds = %_ZStlsISt11char_traitsIcEERSt13basic_ostreamIcT_ES5_PKc.exit
  %64 = bitcast %"class.std::basic_ofstream"* %arrayidx28 to i8**
  %vtable.i136 = load i8*, i8** %64, align 16, !tbaa !6
  %vbase.offset.ptr.i137 = getelementptr i8, i8* %vtable.i136, i64 -24
  %65 = bitcast i8* %vbase.offset.ptr.i137 to i64*
  %vbase.offset.i138 = load i64, i64* %65, align 8
  %66 = bitcast %"class.std::basic_ofstream"* %arrayidx28 to i8*
  %add.ptr.i139 = getelementptr inbounds i8, i8* %66, i64 %vbase.offset.i138
  %67 = bitcast i8* %add.ptr.i139 to %"class.std::basic_ios"*
  %_M_streambuf_state.i.i.i140 = getelementptr inbounds i8, i8* %add.ptr.i139, i64 32
  %68 = bitcast i8* %_M_streambuf_state.i.i.i140 to i32*
  %69 = load i32, i32* %68, align 8, !tbaa !8
  %or.i.i.i141 = or i32 %69, 1
  call void @_ZNSt9basic_iosIcSt11char_traitsIcEE5clearESt12_Ios_Iostate(%"class.std::basic_ios"* nonnull %67, i32 %or.i.i.i141)
  br label %_ZStlsISt11char_traitsIcEERSt13basic_ostreamIcT_ES5_PKc.exit146

if.else.i145:                                     ; preds = %_ZStlsISt11char_traitsIcEERSt13basic_ostreamIcT_ES5_PKc.exit
  %call.i.i143 = call i64 @strlen(i8* nonnull %node_id) #3
  %call1.i144 = call dereferenceable(272) %"class.std::basic_ostream"* @_ZSt16__ostream_insertIcSt11char_traitsIcEERSt13basic_ostreamIT_T0_ES6_PKS3_l(%"class.std::basic_ostream"* nonnull dereferenceable(272) %57, i8* nonnull %node_id, i64 %call.i.i143)
  br label %_ZStlsISt11char_traitsIcEERSt13basic_ostreamIcT_ES5_PKc.exit146

_ZStlsISt11char_traitsIcEERSt13basic_ostreamIcT_ES5_PKc.exit146: ; preds = %if.else.i145, %if.then.i142
  %call1.i148 = call dereferenceable(272) %"class.std::basic_ostream"* @_ZSt16__ostream_insertIcSt11char_traitsIcEERSt13basic_ostreamIT_T0_ES6_PKS3_l(%"class.std::basic_ostream"* nonnull dereferenceable(272) %57, i8* nonnull getelementptr inbounds ([2 x i8], [2 x i8]* @.str.9, i64 0, i64 0), i64 1)
  %call33 = call dereferenceable(272) %"class.std::basic_ostream"* @_ZNSolsEi(%"class.std::basic_ostream"* nonnull %57, i32 %rowsA)
  %call1.i151 = call dereferenceable(272) %"class.std::basic_ostream"* @_ZSt16__ostream_insertIcSt11char_traitsIcEERSt13basic_ostreamIT_T0_ES6_PKS3_l(%"class.std::basic_ostream"* nonnull dereferenceable(272) %call33, i8* nonnull getelementptr inbounds ([2 x i8], [2 x i8]* @.str.9, i64 0, i64 0), i64 1)
  %call35 = call dereferenceable(272) %"class.std::basic_ostream"* @_ZNSolsEi(%"class.std::basic_ostream"* nonnull %call33, i32 %colsA)
  %call1.i109 = call dereferenceable(272) %"class.std::basic_ostream"* @_ZSt16__ostream_insertIcSt11char_traitsIcEERSt13basic_ostreamIT_T0_ES6_PKS3_l(%"class.std::basic_ostream"* nonnull dereferenceable(272) %call35, i8* nonnull getelementptr inbounds ([2 x i8], [2 x i8]* @.str.9, i64 0, i64 0), i64 1)
  %call37 = call dereferenceable(272) %"class.std::basic_ostream"* @_ZNSolsEi(%"class.std::basic_ostream"* nonnull %call35, i32 %rowsB)
  %call1.i78 = call dereferenceable(272) %"class.std::basic_ostream"* @_ZSt16__ostream_insertIcSt11char_traitsIcEERSt13basic_ostreamIT_T0_ES6_PKS3_l(%"class.std::basic_ostream"* nonnull dereferenceable(272) %call37, i8* nonnull getelementptr inbounds ([2 x i8], [2 x i8]* @.str.9, i64 0, i64 0), i64 1)
  %call39 = call dereferenceable(272) %"class.std::basic_ostream"* @_ZNSolsEi(%"class.std::basic_ostream"* nonnull %call37, i32 %colsB)
  %call1.i46 = call dereferenceable(272) %"class.std::basic_ostream"* @_ZSt16__ostream_insertIcSt11char_traitsIcEERSt13basic_ostreamIT_T0_ES6_PKS3_l(%"class.std::basic_ostream"* nonnull dereferenceable(272) %call39, i8* nonnull getelementptr inbounds ([2 x i8], [2 x i8]* @.str.9, i64 0, i64 0), i64 1)
  %call41 = call dereferenceable(272) %"class.std::basic_ostream"* @_ZNSolsEi(%"class.std::basic_ostream"* nonnull %call39, i32 %batch_size)
  %call1.i = call dereferenceable(272) %"class.std::basic_ostream"* @_ZSt16__ostream_insertIcSt11char_traitsIcEERSt13basic_ostreamIT_T0_ES6_PKS3_l(%"class.std::basic_ostream"* nonnull dereferenceable(272) %call41, i8* nonnull getelementptr inbounds ([2 x i8], [2 x i8]* @.str.1, i64 0, i64 0), i64 1)
  ret void
}

; Function Attrs: noinline uwtable
define dso_local void @print_sdp(i8* %acc_kernel_name, i8* %kernel_type, i8* %run_dir, i8* %node_id, i32 %working_mode, i32 %size) #6 personality i8* bitcast (i32 (...)* @__gxx_personality_v0 to i8*) {
entry:
  %ref.tmp.i109 = alloca %"class.std::ios_base::Init", align 1
  %ref.tmp.i88 = alloca %"class.std::ios_base::Init", align 1
  %ref.tmp.i74 = alloca %"class.std::ios_base::Init", align 1
  %ref.tmp.i57 = alloca %"class.std::ios_base::Init", align 1
  %ref.tmp.i43 = alloca %"class.std::ios_base::Init", align 1
  %ref.tmp.i = alloca %"class.std::ios_base::Init", align 1
  %agg.tmp = alloca %"class.std::basic_string", align 8
  %ref.tmp = alloca %"class.std::ios_base::Init", align 1
  %agg.tmp5 = alloca %"class.std::basic_string", align 8
  %ref.tmp6 = alloca %"class.std::ios_base::Init", align 1
  %agg.tmp9 = alloca %"class.std::basic_string", align 8
  %ref.tmp10 = alloca %"class.std::ios_base::Init", align 1
  %call = tail call i32 @omp_get_thread_num() #3
  %idxprom = sext i32 %call to i64
  %_M_file.i.i = getelementptr inbounds [1024 x %"class.std::basic_ofstream"], [1024 x %"class.std::basic_ofstream"]* @f3, i64 0, i64 %idxprom, i32 1, i32 2
  %call.i.i = tail call zeroext i1 @_ZNKSt12__basic_fileIcE7is_openEv(%"class.std::__basic_file"* nonnull %_M_file.i.i) #22
  br i1 %call.i.i, label %if.end, label %if.then

if.then:                                          ; preds = %entry
  %call2 = tail call i32 @omp_get_thread_num() #3
  %idxprom3 = sext i32 %call2 to i64
  %arrayidx4 = getelementptr inbounds [1024 x %"class.std::basic_ofstream"], [1024 x %"class.std::basic_ofstream"]* @f3, i64 0, i64 %idxprom3
  %0 = getelementptr inbounds %"class.std::ios_base::Init", %"class.std::ios_base::Init"* %ref.tmp, i64 0, i32 0
  call void @llvm.lifetime.start.p0i8(i64 1, i8* nonnull %0) #3
  invoke void @_ZNSsC1EPKcRKSaIcE(%"class.std::basic_string"* nonnull %agg.tmp, i8* %run_dir, %"class.std::ios_base::Init"* nonnull dereferenceable(1) %ref.tmp)
          to label %invoke.cont unwind label %lpad

invoke.cont:                                      ; preds = %if.then
  %1 = getelementptr inbounds %"class.std::ios_base::Init", %"class.std::ios_base::Init"* %ref.tmp6, i64 0, i32 0
  call void @llvm.lifetime.start.p0i8(i64 1, i8* nonnull %1) #3
  invoke void @_ZNSsC1EPKcRKSaIcE(%"class.std::basic_string"* nonnull %agg.tmp5, i8* %kernel_type, %"class.std::ios_base::Init"* nonnull dereferenceable(1) %ref.tmp6)
          to label %invoke.cont8 unwind label %lpad7

invoke.cont8:                                     ; preds = %invoke.cont
  %2 = getelementptr inbounds %"class.std::ios_base::Init", %"class.std::ios_base::Init"* %ref.tmp10, i64 0, i32 0
  call void @llvm.lifetime.start.p0i8(i64 1, i8* nonnull %2) #3
  invoke void @_ZNSsC1EPKcRKSaIcE(%"class.std::basic_string"* nonnull %agg.tmp9, i8* getelementptr inbounds ([8 x i8], [8 x i8]* @.str.16, i64 0, i64 0), %"class.std::ios_base::Init"* nonnull dereferenceable(1) %ref.tmp10)
          to label %invoke.cont12 unwind label %lpad11

invoke.cont12:                                    ; preds = %invoke.cont8
  %call15 = invoke i8* @_Z12get_dir_nameSsSsSs(%"class.std::basic_string"* nonnull %agg.tmp, %"class.std::basic_string"* nonnull %agg.tmp5, %"class.std::basic_string"* nonnull %agg.tmp9)
          to label %invoke.cont14 unwind label %lpad13

invoke.cont14:                                    ; preds = %invoke.cont12
  %_M_filebuf.i = getelementptr inbounds [1024 x %"class.std::basic_ofstream"], [1024 x %"class.std::basic_ofstream"]* @f3, i64 0, i64 %idxprom3, i32 1
  %call2.i41 = invoke %"class.std::basic_filebuf"* @_ZNSt13basic_filebufIcSt11char_traitsIcEE4openEPKcSt13_Ios_Openmode(%"class.std::basic_filebuf"* nonnull %_M_filebuf.i, i8* %call15, i32 17)
          to label %call2.i.noexc unwind label %lpad13

call2.i.noexc:                                    ; preds = %invoke.cont14
  %tobool.i = icmp eq %"class.std::basic_filebuf"* %call2.i41, null
  %3 = bitcast %"class.std::basic_ofstream"* %arrayidx4 to i8**
  %vtable3.i = load i8*, i8** %3, align 16, !tbaa !6
  %vbase.offset.ptr4.i = getelementptr i8, i8* %vtable3.i, i64 -24
  %4 = bitcast i8* %vbase.offset.ptr4.i to i64*
  %vbase.offset5.i = load i64, i64* %4, align 8
  %5 = bitcast %"class.std::basic_ofstream"* %arrayidx4 to i8*
  %add.ptr6.i = getelementptr inbounds i8, i8* %5, i64 %vbase.offset5.i
  %6 = bitcast i8* %add.ptr6.i to %"class.std::basic_ios"*
  br i1 %tobool.i, label %if.then.i, label %if.else.i

if.then.i:                                        ; preds = %call2.i.noexc
  %_M_streambuf_state.i.i.i = getelementptr inbounds i8, i8* %add.ptr6.i, i64 32
  %7 = bitcast i8* %_M_streambuf_state.i.i.i to i32*
  %8 = load i32, i32* %7, align 8, !tbaa !8
  %or.i.i.i = or i32 %8, 4
  invoke void @_ZNSt9basic_iosIcSt11char_traitsIcEE5clearESt12_Ios_Iostate(%"class.std::basic_ios"* nonnull %6, i32 %or.i.i.i)
          to label %invoke.cont18 unwind label %lpad13

if.else.i:                                        ; preds = %call2.i.noexc
  invoke void @_ZNSt9basic_iosIcSt11char_traitsIcEE5clearESt12_Ios_Iostate(%"class.std::basic_ios"* nonnull %6, i32 0)
          to label %invoke.cont18 unwind label %lpad13

invoke.cont18:                                    ; preds = %if.else.i, %if.then.i
  %_M_p.i.i.i = getelementptr inbounds %"class.std::basic_string", %"class.std::basic_string"* %agg.tmp9, i64 0, i32 0, i32 0
  %9 = load i8*, i8** %_M_p.i.i.i, align 8, !tbaa !17
  %arrayidx.i.i = getelementptr inbounds i8, i8* %9, i64 -24
  %10 = bitcast i8* %arrayidx.i.i to %"struct.std::basic_string<char, std::char_traits<char>, std::allocator<char> >::_Rep"*
  %11 = getelementptr inbounds %"class.std::ios_base::Init", %"class.std::ios_base::Init"* %ref.tmp.i, i64 0, i32 0
  call void @llvm.lifetime.start.p0i8(i64 1, i8* nonnull %11) #3
  %cmp.i.i = icmp eq i8* %arrayidx.i.i, bitcast ([0 x i64]* @_ZNSs4_Rep20_S_empty_rep_storageE to i8*)
  br i1 %cmp.i.i, label %_ZNSsD2Ev.exit, label %if.then.i.i, !prof !22

if.then.i.i:                                      ; preds = %invoke.cont18
  %_M_refcount.i.i = getelementptr inbounds i8, i8* %9, i64 -8
  %12 = bitcast i8* %_M_refcount.i.i to i32*
  br i1 icmp ne (i8* bitcast (i32 (i32*, void (i8*)*)* @__pthread_key_create to i8*), i8* null), label %if.then.i.i.i, label %if.else.i.i.i

if.then.i.i.i:                                    ; preds = %if.then.i.i
  %13 = atomicrmw volatile add i32* %12, i32 -1 acq_rel
  br label %invoke.cont.i.i

if.else.i.i.i:                                    ; preds = %if.then.i.i
  %14 = load i32, i32* %12, align 4, !tbaa !23
  %add.i.i.i.i = add nsw i32 %14, -1
  store i32 %add.i.i.i.i, i32* %12, align 4, !tbaa !23
  br label %invoke.cont.i.i

invoke.cont.i.i:                                  ; preds = %if.else.i.i.i, %if.then.i.i.i
  %retval.0.i.i.i = phi i32 [ %13, %if.then.i.i.i ], [ %14, %if.else.i.i.i ]
  %cmp3.i.i = icmp slt i32 %retval.0.i.i.i, 1
  br i1 %cmp3.i.i, label %if.then4.i.i, label %_ZNSsD2Ev.exit

if.then4.i.i:                                     ; preds = %invoke.cont.i.i
  call void @_ZNSs4_Rep10_M_destroyERKSaIcE(%"struct.std::basic_string<char, std::char_traits<char>, std::allocator<char> >::_Rep"* nonnull %10, %"class.std::ios_base::Init"* nonnull dereferenceable(1) %ref.tmp.i) #3
  br label %_ZNSsD2Ev.exit

_ZNSsD2Ev.exit:                                   ; preds = %if.then4.i.i, %invoke.cont.i.i, %invoke.cont18
  call void @llvm.lifetime.end.p0i8(i64 1, i8* nonnull %11) #3
  call void @llvm.lifetime.end.p0i8(i64 1, i8* nonnull %2) #3
  %_M_p.i.i.i44 = getelementptr inbounds %"class.std::basic_string", %"class.std::basic_string"* %agg.tmp5, i64 0, i32 0, i32 0
  %15 = load i8*, i8** %_M_p.i.i.i44, align 8, !tbaa !17
  %arrayidx.i.i45 = getelementptr inbounds i8, i8* %15, i64 -24
  %16 = bitcast i8* %arrayidx.i.i45 to %"struct.std::basic_string<char, std::char_traits<char>, std::allocator<char> >::_Rep"*
  %17 = getelementptr inbounds %"class.std::ios_base::Init", %"class.std::ios_base::Init"* %ref.tmp.i43, i64 0, i32 0
  call void @llvm.lifetime.start.p0i8(i64 1, i8* nonnull %17) #3
  %cmp.i.i46 = icmp eq i8* %arrayidx.i.i45, bitcast ([0 x i64]* @_ZNSs4_Rep20_S_empty_rep_storageE to i8*)
  br i1 %cmp.i.i46, label %_ZNSsD2Ev.exit56, label %if.then.i.i48, !prof !22

if.then.i.i48:                                    ; preds = %_ZNSsD2Ev.exit
  %_M_refcount.i.i47 = getelementptr inbounds i8, i8* %15, i64 -8
  %18 = bitcast i8* %_M_refcount.i.i47 to i32*
  br i1 icmp ne (i8* bitcast (i32 (i32*, void (i8*)*)* @__pthread_key_create to i8*), i8* null), label %if.then.i.i.i49, label %if.else.i.i.i51

if.then.i.i.i49:                                  ; preds = %if.then.i.i48
  %19 = atomicrmw volatile add i32* %18, i32 -1 acq_rel
  br label %invoke.cont.i.i54

if.else.i.i.i51:                                  ; preds = %if.then.i.i48
  %20 = load i32, i32* %18, align 4, !tbaa !23
  %add.i.i.i.i50 = add nsw i32 %20, -1
  store i32 %add.i.i.i.i50, i32* %18, align 4, !tbaa !23
  br label %invoke.cont.i.i54

invoke.cont.i.i54:                                ; preds = %if.else.i.i.i51, %if.then.i.i.i49
  %retval.0.i.i.i52 = phi i32 [ %19, %if.then.i.i.i49 ], [ %20, %if.else.i.i.i51 ]
  %cmp3.i.i53 = icmp slt i32 %retval.0.i.i.i52, 1
  br i1 %cmp3.i.i53, label %if.then4.i.i55, label %_ZNSsD2Ev.exit56

if.then4.i.i55:                                   ; preds = %invoke.cont.i.i54
  call void @_ZNSs4_Rep10_M_destroyERKSaIcE(%"struct.std::basic_string<char, std::char_traits<char>, std::allocator<char> >::_Rep"* nonnull %16, %"class.std::ios_base::Init"* nonnull dereferenceable(1) %ref.tmp.i43) #3
  br label %_ZNSsD2Ev.exit56

_ZNSsD2Ev.exit56:                                 ; preds = %if.then4.i.i55, %invoke.cont.i.i54, %_ZNSsD2Ev.exit
  call void @llvm.lifetime.end.p0i8(i64 1, i8* nonnull %17) #3
  call void @llvm.lifetime.end.p0i8(i64 1, i8* nonnull %1) #3
  %_M_p.i.i.i58 = getelementptr inbounds %"class.std::basic_string", %"class.std::basic_string"* %agg.tmp, i64 0, i32 0, i32 0
  %21 = load i8*, i8** %_M_p.i.i.i58, align 8, !tbaa !17
  %arrayidx.i.i59 = getelementptr inbounds i8, i8* %21, i64 -24
  %22 = bitcast i8* %arrayidx.i.i59 to %"struct.std::basic_string<char, std::char_traits<char>, std::allocator<char> >::_Rep"*
  %23 = getelementptr inbounds %"class.std::ios_base::Init", %"class.std::ios_base::Init"* %ref.tmp.i57, i64 0, i32 0
  call void @llvm.lifetime.start.p0i8(i64 1, i8* nonnull %23) #3
  %cmp.i.i60 = icmp eq i8* %arrayidx.i.i59, bitcast ([0 x i64]* @_ZNSs4_Rep20_S_empty_rep_storageE to i8*)
  br i1 %cmp.i.i60, label %_ZNSsD2Ev.exit70, label %if.then.i.i62, !prof !22

if.then.i.i62:                                    ; preds = %_ZNSsD2Ev.exit56
  %_M_refcount.i.i61 = getelementptr inbounds i8, i8* %21, i64 -8
  %24 = bitcast i8* %_M_refcount.i.i61 to i32*
  br i1 icmp ne (i8* bitcast (i32 (i32*, void (i8*)*)* @__pthread_key_create to i8*), i8* null), label %if.then.i.i.i63, label %if.else.i.i.i65

if.then.i.i.i63:                                  ; preds = %if.then.i.i62
  %25 = atomicrmw volatile add i32* %24, i32 -1 acq_rel
  br label %invoke.cont.i.i68

if.else.i.i.i65:                                  ; preds = %if.then.i.i62
  %26 = load i32, i32* %24, align 4, !tbaa !23
  %add.i.i.i.i64 = add nsw i32 %26, -1
  store i32 %add.i.i.i.i64, i32* %24, align 4, !tbaa !23
  br label %invoke.cont.i.i68

invoke.cont.i.i68:                                ; preds = %if.else.i.i.i65, %if.then.i.i.i63
  %retval.0.i.i.i66 = phi i32 [ %25, %if.then.i.i.i63 ], [ %26, %if.else.i.i.i65 ]
  %cmp3.i.i67 = icmp slt i32 %retval.0.i.i.i66, 1
  br i1 %cmp3.i.i67, label %if.then4.i.i69, label %_ZNSsD2Ev.exit70

if.then4.i.i69:                                   ; preds = %invoke.cont.i.i68
  call void @_ZNSs4_Rep10_M_destroyERKSaIcE(%"struct.std::basic_string<char, std::char_traits<char>, std::allocator<char> >::_Rep"* nonnull %22, %"class.std::ios_base::Init"* nonnull dereferenceable(1) %ref.tmp.i57) #3
  br label %_ZNSsD2Ev.exit70

_ZNSsD2Ev.exit70:                                 ; preds = %if.then4.i.i69, %invoke.cont.i.i68, %_ZNSsD2Ev.exit56
  call void @llvm.lifetime.end.p0i8(i64 1, i8* nonnull %23) #3
  call void @llvm.lifetime.end.p0i8(i64 1, i8* nonnull %0) #3
  br label %if.end

lpad:                                             ; preds = %if.then
  %27 = landingpad { i8*, i32 }
          cleanup
  %28 = extractvalue { i8*, i32 } %27, 0
  %29 = extractvalue { i8*, i32 } %27, 1
  br label %ehcleanup24

lpad7:                                            ; preds = %invoke.cont
  %30 = landingpad { i8*, i32 }
          cleanup
  %31 = extractvalue { i8*, i32 } %30, 0
  %32 = extractvalue { i8*, i32 } %30, 1
  br label %ehcleanup21

lpad11:                                           ; preds = %invoke.cont8
  %33 = landingpad { i8*, i32 }
          cleanup
  %34 = extractvalue { i8*, i32 } %33, 0
  %35 = extractvalue { i8*, i32 } %33, 1
  br label %ehcleanup

lpad13:                                           ; preds = %if.else.i, %if.then.i, %invoke.cont14, %invoke.cont12
  %36 = landingpad { i8*, i32 }
          cleanup
  %37 = extractvalue { i8*, i32 } %36, 0
  %38 = extractvalue { i8*, i32 } %36, 1
  %_M_p.i.i.i75 = getelementptr inbounds %"class.std::basic_string", %"class.std::basic_string"* %agg.tmp9, i64 0, i32 0, i32 0
  %39 = load i8*, i8** %_M_p.i.i.i75, align 8, !tbaa !17
  %arrayidx.i.i76 = getelementptr inbounds i8, i8* %39, i64 -24
  %40 = bitcast i8* %arrayidx.i.i76 to %"struct.std::basic_string<char, std::char_traits<char>, std::allocator<char> >::_Rep"*
  %41 = getelementptr inbounds %"class.std::ios_base::Init", %"class.std::ios_base::Init"* %ref.tmp.i74, i64 0, i32 0
  call void @llvm.lifetime.start.p0i8(i64 1, i8* nonnull %41) #3
  %cmp.i.i77 = icmp eq i8* %arrayidx.i.i76, bitcast ([0 x i64]* @_ZNSs4_Rep20_S_empty_rep_storageE to i8*)
  br i1 %cmp.i.i77, label %_ZNSsD2Ev.exit87, label %if.then.i.i79, !prof !22

if.then.i.i79:                                    ; preds = %lpad13
  %_M_refcount.i.i78 = getelementptr inbounds i8, i8* %39, i64 -8
  %42 = bitcast i8* %_M_refcount.i.i78 to i32*
  br i1 icmp ne (i8* bitcast (i32 (i32*, void (i8*)*)* @__pthread_key_create to i8*), i8* null), label %if.then.i.i.i80, label %if.else.i.i.i82

if.then.i.i.i80:                                  ; preds = %if.then.i.i79
  %43 = atomicrmw volatile add i32* %42, i32 -1 acq_rel
  br label %invoke.cont.i.i85

if.else.i.i.i82:                                  ; preds = %if.then.i.i79
  %44 = load i32, i32* %42, align 4, !tbaa !23
  %add.i.i.i.i81 = add nsw i32 %44, -1
  store i32 %add.i.i.i.i81, i32* %42, align 4, !tbaa !23
  br label %invoke.cont.i.i85

invoke.cont.i.i85:                                ; preds = %if.else.i.i.i82, %if.then.i.i.i80
  %retval.0.i.i.i83 = phi i32 [ %43, %if.then.i.i.i80 ], [ %44, %if.else.i.i.i82 ]
  %cmp3.i.i84 = icmp slt i32 %retval.0.i.i.i83, 1
  br i1 %cmp3.i.i84, label %if.then4.i.i86, label %_ZNSsD2Ev.exit87

if.then4.i.i86:                                   ; preds = %invoke.cont.i.i85
  call void @_ZNSs4_Rep10_M_destroyERKSaIcE(%"struct.std::basic_string<char, std::char_traits<char>, std::allocator<char> >::_Rep"* nonnull %40, %"class.std::ios_base::Init"* nonnull dereferenceable(1) %ref.tmp.i74) #3
  br label %_ZNSsD2Ev.exit87

_ZNSsD2Ev.exit87:                                 ; preds = %if.then4.i.i86, %invoke.cont.i.i85, %lpad13
  call void @llvm.lifetime.end.p0i8(i64 1, i8* nonnull %41) #3
  br label %ehcleanup

ehcleanup:                                        ; preds = %_ZNSsD2Ev.exit87, %lpad11
  %exn.slot.0 = phi i8* [ %37, %_ZNSsD2Ev.exit87 ], [ %34, %lpad11 ]
  %ehselector.slot.0 = phi i32 [ %38, %_ZNSsD2Ev.exit87 ], [ %35, %lpad11 ]
  call void @llvm.lifetime.end.p0i8(i64 1, i8* nonnull %2) #3
  %_M_p.i.i.i89 = getelementptr inbounds %"class.std::basic_string", %"class.std::basic_string"* %agg.tmp5, i64 0, i32 0, i32 0
  %45 = load i8*, i8** %_M_p.i.i.i89, align 8, !tbaa !17
  %arrayidx.i.i90 = getelementptr inbounds i8, i8* %45, i64 -24
  %46 = bitcast i8* %arrayidx.i.i90 to %"struct.std::basic_string<char, std::char_traits<char>, std::allocator<char> >::_Rep"*
  %47 = getelementptr inbounds %"class.std::ios_base::Init", %"class.std::ios_base::Init"* %ref.tmp.i88, i64 0, i32 0
  call void @llvm.lifetime.start.p0i8(i64 1, i8* nonnull %47) #3
  %cmp.i.i91 = icmp eq i8* %arrayidx.i.i90, bitcast ([0 x i64]* @_ZNSs4_Rep20_S_empty_rep_storageE to i8*)
  br i1 %cmp.i.i91, label %_ZNSsD2Ev.exit101, label %if.then.i.i93, !prof !22

if.then.i.i93:                                    ; preds = %ehcleanup
  %_M_refcount.i.i92 = getelementptr inbounds i8, i8* %45, i64 -8
  %48 = bitcast i8* %_M_refcount.i.i92 to i32*
  br i1 icmp ne (i8* bitcast (i32 (i32*, void (i8*)*)* @__pthread_key_create to i8*), i8* null), label %if.then.i.i.i94, label %if.else.i.i.i96

if.then.i.i.i94:                                  ; preds = %if.then.i.i93
  %49 = atomicrmw volatile add i32* %48, i32 -1 acq_rel
  br label %invoke.cont.i.i99

if.else.i.i.i96:                                  ; preds = %if.then.i.i93
  %50 = load i32, i32* %48, align 4, !tbaa !23
  %add.i.i.i.i95 = add nsw i32 %50, -1
  store i32 %add.i.i.i.i95, i32* %48, align 4, !tbaa !23
  br label %invoke.cont.i.i99

invoke.cont.i.i99:                                ; preds = %if.else.i.i.i96, %if.then.i.i.i94
  %retval.0.i.i.i97 = phi i32 [ %49, %if.then.i.i.i94 ], [ %50, %if.else.i.i.i96 ]
  %cmp3.i.i98 = icmp slt i32 %retval.0.i.i.i97, 1
  br i1 %cmp3.i.i98, label %if.then4.i.i100, label %_ZNSsD2Ev.exit101

if.then4.i.i100:                                  ; preds = %invoke.cont.i.i99
  call void @_ZNSs4_Rep10_M_destroyERKSaIcE(%"struct.std::basic_string<char, std::char_traits<char>, std::allocator<char> >::_Rep"* nonnull %46, %"class.std::ios_base::Init"* nonnull dereferenceable(1) %ref.tmp.i88) #3
  br label %_ZNSsD2Ev.exit101

_ZNSsD2Ev.exit101:                                ; preds = %if.then4.i.i100, %invoke.cont.i.i99, %ehcleanup
  call void @llvm.lifetime.end.p0i8(i64 1, i8* nonnull %47) #3
  br label %ehcleanup21

ehcleanup21:                                      ; preds = %_ZNSsD2Ev.exit101, %lpad7
  %exn.slot.1 = phi i8* [ %exn.slot.0, %_ZNSsD2Ev.exit101 ], [ %31, %lpad7 ]
  %ehselector.slot.1 = phi i32 [ %ehselector.slot.0, %_ZNSsD2Ev.exit101 ], [ %32, %lpad7 ]
  call void @llvm.lifetime.end.p0i8(i64 1, i8* nonnull %1) #3
  %_M_p.i.i.i110 = getelementptr inbounds %"class.std::basic_string", %"class.std::basic_string"* %agg.tmp, i64 0, i32 0, i32 0
  %51 = load i8*, i8** %_M_p.i.i.i110, align 8, !tbaa !17
  %arrayidx.i.i111 = getelementptr inbounds i8, i8* %51, i64 -24
  %52 = bitcast i8* %arrayidx.i.i111 to %"struct.std::basic_string<char, std::char_traits<char>, std::allocator<char> >::_Rep"*
  %53 = getelementptr inbounds %"class.std::ios_base::Init", %"class.std::ios_base::Init"* %ref.tmp.i109, i64 0, i32 0
  call void @llvm.lifetime.start.p0i8(i64 1, i8* nonnull %53) #3
  %cmp.i.i112 = icmp eq i8* %arrayidx.i.i111, bitcast ([0 x i64]* @_ZNSs4_Rep20_S_empty_rep_storageE to i8*)
  br i1 %cmp.i.i112, label %_ZNSsD2Ev.exit122, label %if.then.i.i114, !prof !22

if.then.i.i114:                                   ; preds = %ehcleanup21
  %_M_refcount.i.i113 = getelementptr inbounds i8, i8* %51, i64 -8
  %54 = bitcast i8* %_M_refcount.i.i113 to i32*
  br i1 icmp ne (i8* bitcast (i32 (i32*, void (i8*)*)* @__pthread_key_create to i8*), i8* null), label %if.then.i.i.i115, label %if.else.i.i.i117

if.then.i.i.i115:                                 ; preds = %if.then.i.i114
  %55 = atomicrmw volatile add i32* %54, i32 -1 acq_rel
  br label %invoke.cont.i.i120

if.else.i.i.i117:                                 ; preds = %if.then.i.i114
  %56 = load i32, i32* %54, align 4, !tbaa !23
  %add.i.i.i.i116 = add nsw i32 %56, -1
  store i32 %add.i.i.i.i116, i32* %54, align 4, !tbaa !23
  br label %invoke.cont.i.i120

invoke.cont.i.i120:                               ; preds = %if.else.i.i.i117, %if.then.i.i.i115
  %retval.0.i.i.i118 = phi i32 [ %55, %if.then.i.i.i115 ], [ %56, %if.else.i.i.i117 ]
  %cmp3.i.i119 = icmp slt i32 %retval.0.i.i.i118, 1
  br i1 %cmp3.i.i119, label %if.then4.i.i121, label %_ZNSsD2Ev.exit122

if.then4.i.i121:                                  ; preds = %invoke.cont.i.i120
  call void @_ZNSs4_Rep10_M_destroyERKSaIcE(%"struct.std::basic_string<char, std::char_traits<char>, std::allocator<char> >::_Rep"* nonnull %52, %"class.std::ios_base::Init"* nonnull dereferenceable(1) %ref.tmp.i109) #3
  br label %_ZNSsD2Ev.exit122

_ZNSsD2Ev.exit122:                                ; preds = %if.then4.i.i121, %invoke.cont.i.i120, %ehcleanup21
  call void @llvm.lifetime.end.p0i8(i64 1, i8* nonnull %53) #3
  br label %ehcleanup24

ehcleanup24:                                      ; preds = %_ZNSsD2Ev.exit122, %lpad
  %exn.slot.2 = phi i8* [ %exn.slot.1, %_ZNSsD2Ev.exit122 ], [ %28, %lpad ]
  %ehselector.slot.2 = phi i32 [ %ehselector.slot.1, %_ZNSsD2Ev.exit122 ], [ %29, %lpad ]
  call void @llvm.lifetime.end.p0i8(i64 1, i8* nonnull %0) #3
  %lpad.val = insertvalue { i8*, i32 } undef, i8* %exn.slot.2, 0
  %lpad.val37 = insertvalue { i8*, i32 } %lpad.val, i32 %ehselector.slot.2, 1
  resume { i8*, i32 } %lpad.val37

if.end:                                           ; preds = %_ZNSsD2Ev.exit70, %entry
  %call26 = call i32 @omp_get_thread_num() #3
  %idxprom27 = sext i32 %call26 to i64
  %arrayidx28 = getelementptr inbounds [1024 x %"class.std::basic_ofstream"], [1024 x %"class.std::basic_ofstream"]* @f3, i64 0, i64 %idxprom27
  %57 = bitcast %"class.std::basic_ofstream"* %arrayidx28 to %"class.std::basic_ostream"*
  %tobool.i123 = icmp eq i8* %acc_kernel_name, null
  br i1 %tobool.i123, label %if.then.i130, label %if.else.i133

if.then.i130:                                     ; preds = %if.end
  %58 = bitcast %"class.std::basic_ofstream"* %arrayidx28 to i8**
  %vtable.i124 = load i8*, i8** %58, align 16, !tbaa !6
  %vbase.offset.ptr.i125 = getelementptr i8, i8* %vtable.i124, i64 -24
  %59 = bitcast i8* %vbase.offset.ptr.i125 to i64*
  %vbase.offset.i126 = load i64, i64* %59, align 8
  %60 = bitcast %"class.std::basic_ofstream"* %arrayidx28 to i8*
  %add.ptr.i127 = getelementptr inbounds i8, i8* %60, i64 %vbase.offset.i126
  %61 = bitcast i8* %add.ptr.i127 to %"class.std::basic_ios"*
  %_M_streambuf_state.i.i.i128 = getelementptr inbounds i8, i8* %add.ptr.i127, i64 32
  %62 = bitcast i8* %_M_streambuf_state.i.i.i128 to i32*
  %63 = load i32, i32* %62, align 8, !tbaa !8
  %or.i.i.i129 = or i32 %63, 1
  call void @_ZNSt9basic_iosIcSt11char_traitsIcEE5clearESt12_Ios_Iostate(%"class.std::basic_ios"* nonnull %61, i32 %or.i.i.i129)
  br label %_ZStlsISt11char_traitsIcEERSt13basic_ostreamIcT_ES5_PKc.exit134

if.else.i133:                                     ; preds = %if.end
  %call.i.i131 = call i64 @strlen(i8* nonnull %acc_kernel_name) #3
  %call1.i132 = call dereferenceable(272) %"class.std::basic_ostream"* @_ZSt16__ostream_insertIcSt11char_traitsIcEERSt13basic_ostreamIT_T0_ES6_PKS3_l(%"class.std::basic_ostream"* nonnull dereferenceable(272) %57, i8* nonnull %acc_kernel_name, i64 %call.i.i131)
  br label %_ZStlsISt11char_traitsIcEERSt13basic_ostreamIcT_ES5_PKc.exit134

_ZStlsISt11char_traitsIcEERSt13basic_ostreamIcT_ES5_PKc.exit134: ; preds = %if.else.i133, %if.then.i130
  %call1.i136 = call dereferenceable(272) %"class.std::basic_ostream"* @_ZSt16__ostream_insertIcSt11char_traitsIcEERSt13basic_ostreamIT_T0_ES6_PKS3_l(%"class.std::basic_ostream"* nonnull dereferenceable(272) %57, i8* nonnull getelementptr inbounds ([2 x i8], [2 x i8]* @.str.9, i64 0, i64 0), i64 1)
  %tobool.i102 = icmp eq i8* %node_id, null
  br i1 %tobool.i102, label %if.then.i105, label %if.else.i108

if.then.i105:                                     ; preds = %_ZStlsISt11char_traitsIcEERSt13basic_ostreamIcT_ES5_PKc.exit134
  %64 = bitcast %"class.std::basic_ofstream"* %arrayidx28 to i8**
  %vtable.i = load i8*, i8** %64, align 16, !tbaa !6
  %vbase.offset.ptr.i = getelementptr i8, i8* %vtable.i, i64 -24
  %65 = bitcast i8* %vbase.offset.ptr.i to i64*
  %vbase.offset.i = load i64, i64* %65, align 8
  %66 = bitcast %"class.std::basic_ofstream"* %arrayidx28 to i8*
  %add.ptr.i = getelementptr inbounds i8, i8* %66, i64 %vbase.offset.i
  %67 = bitcast i8* %add.ptr.i to %"class.std::basic_ios"*
  %_M_streambuf_state.i.i.i103 = getelementptr inbounds i8, i8* %add.ptr.i, i64 32
  %68 = bitcast i8* %_M_streambuf_state.i.i.i103 to i32*
  %69 = load i32, i32* %68, align 8, !tbaa !8
  %or.i.i.i104 = or i32 %69, 1
  call void @_ZNSt9basic_iosIcSt11char_traitsIcEE5clearESt12_Ios_Iostate(%"class.std::basic_ios"* nonnull %67, i32 %or.i.i.i104)
  br label %_ZStlsISt11char_traitsIcEERSt13basic_ostreamIcT_ES5_PKc.exit

if.else.i108:                                     ; preds = %_ZStlsISt11char_traitsIcEERSt13basic_ostreamIcT_ES5_PKc.exit134
  %call.i.i106 = call i64 @strlen(i8* nonnull %node_id) #3
  %call1.i107 = call dereferenceable(272) %"class.std::basic_ostream"* @_ZSt16__ostream_insertIcSt11char_traitsIcEERSt13basic_ostreamIT_T0_ES6_PKS3_l(%"class.std::basic_ostream"* nonnull dereferenceable(272) %57, i8* nonnull %node_id, i64 %call.i.i106)
  br label %_ZStlsISt11char_traitsIcEERSt13basic_ostreamIcT_ES5_PKc.exit

_ZStlsISt11char_traitsIcEERSt13basic_ostreamIcT_ES5_PKc.exit: ; preds = %if.else.i108, %if.then.i105
  %call1.i72 = call dereferenceable(272) %"class.std::basic_ostream"* @_ZSt16__ostream_insertIcSt11char_traitsIcEERSt13basic_ostreamIT_T0_ES6_PKS3_l(%"class.std::basic_ostream"* nonnull dereferenceable(272) %57, i8* nonnull getelementptr inbounds ([2 x i8], [2 x i8]* @.str.9, i64 0, i64 0), i64 1)
  %call33 = call dereferenceable(272) %"class.std::basic_ostream"* @_ZNSolsEi(%"class.std::basic_ostream"* nonnull %57, i32 %working_mode)
  %call1.i40 = call dereferenceable(272) %"class.std::basic_ostream"* @_ZSt16__ostream_insertIcSt11char_traitsIcEERSt13basic_ostreamIT_T0_ES6_PKS3_l(%"class.std::basic_ostream"* nonnull dereferenceable(272) %call33, i8* nonnull getelementptr inbounds ([2 x i8], [2 x i8]* @.str.9, i64 0, i64 0), i64 1)
  %call35 = call dereferenceable(272) %"class.std::basic_ostream"* @_ZNSolsEi(%"class.std::basic_ostream"* nonnull %call33, i32 %size)
  %call1.i = call dereferenceable(272) %"class.std::basic_ostream"* @_ZSt16__ostream_insertIcSt11char_traitsIcEERSt13basic_ostreamIT_T0_ES6_PKS3_l(%"class.std::basic_ostream"* nonnull dereferenceable(272) %call35, i8* nonnull getelementptr inbounds ([2 x i8], [2 x i8]* @.str.1, i64 0, i64 0), i64 1)
  ret void
}

; Function Attrs: noinline uwtable
define dso_local void @print_conv2d_layer(i8* %acc_kernel_name, i8* %kernel_type, i8* %run_dir, i8* %node_id, i32 %batch, i32 %in_channels, i32 %in_height, i32 %in_width, i32 %out_channels, i32 %filter_height, i32 %filter_width, i1 zeroext %zero_pad, i32 %vert_conv_stride, i32 %horiz_conv_stride, i1 zeroext %pooling, i32 %pool_height, i32 %pool_width, i32 %vertical_pool_stride, i32 %horizontal_pool_stride) #6 personality i8* bitcast (i32 (...)* @__gxx_personality_v0 to i8*) {
entry:
  %ref.tmp.i133 = alloca %"class.std::ios_base::Init", align 1
  %ref.tmp.i116 = alloca %"class.std::ios_base::Init", align 1
  %ref.tmp.i102 = alloca %"class.std::ios_base::Init", align 1
  %ref.tmp.i85 = alloca %"class.std::ios_base::Init", align 1
  %ref.tmp.i71 = alloca %"class.std::ios_base::Init", align 1
  %ref.tmp.i = alloca %"class.std::ios_base::Init", align 1
  %agg.tmp = alloca %"class.std::basic_string", align 8
  %ref.tmp = alloca %"class.std::ios_base::Init", align 1
  %agg.tmp6 = alloca %"class.std::basic_string", align 8
  %ref.tmp7 = alloca %"class.std::ios_base::Init", align 1
  %agg.tmp10 = alloca %"class.std::basic_string", align 8
  %ref.tmp11 = alloca %"class.std::ios_base::Init", align 1
  %call = tail call i32 @omp_get_thread_num() #3
  %idxprom = sext i32 %call to i64
  %_M_file.i.i = getelementptr inbounds [1024 x %"class.std::basic_ofstream"], [1024 x %"class.std::basic_ofstream"]* @f3, i64 0, i64 %idxprom, i32 1, i32 2
  %call.i.i = tail call zeroext i1 @_ZNKSt12__basic_fileIcE7is_openEv(%"class.std::__basic_file"* nonnull %_M_file.i.i) #22
  br i1 %call.i.i, label %if.end, label %if.then

if.then:                                          ; preds = %entry
  %call3 = tail call i32 @omp_get_thread_num() #3
  %idxprom4 = sext i32 %call3 to i64
  %arrayidx5 = getelementptr inbounds [1024 x %"class.std::basic_ofstream"], [1024 x %"class.std::basic_ofstream"]* @f3, i64 0, i64 %idxprom4
  %0 = getelementptr inbounds %"class.std::ios_base::Init", %"class.std::ios_base::Init"* %ref.tmp, i64 0, i32 0
  call void @llvm.lifetime.start.p0i8(i64 1, i8* nonnull %0) #3
  invoke void @_ZNSsC1EPKcRKSaIcE(%"class.std::basic_string"* nonnull %agg.tmp, i8* %run_dir, %"class.std::ios_base::Init"* nonnull dereferenceable(1) %ref.tmp)
          to label %invoke.cont unwind label %lpad

invoke.cont:                                      ; preds = %if.then
  %1 = getelementptr inbounds %"class.std::ios_base::Init", %"class.std::ios_base::Init"* %ref.tmp7, i64 0, i32 0
  call void @llvm.lifetime.start.p0i8(i64 1, i8* nonnull %1) #3
  invoke void @_ZNSsC1EPKcRKSaIcE(%"class.std::basic_string"* nonnull %agg.tmp6, i8* %kernel_type, %"class.std::ios_base::Init"* nonnull dereferenceable(1) %ref.tmp7)
          to label %invoke.cont9 unwind label %lpad8

invoke.cont9:                                     ; preds = %invoke.cont
  %2 = getelementptr inbounds %"class.std::ios_base::Init", %"class.std::ios_base::Init"* %ref.tmp11, i64 0, i32 0
  call void @llvm.lifetime.start.p0i8(i64 1, i8* nonnull %2) #3
  invoke void @_ZNSsC1EPKcRKSaIcE(%"class.std::basic_string"* nonnull %agg.tmp10, i8* getelementptr inbounds ([8 x i8], [8 x i8]* @.str.16, i64 0, i64 0), %"class.std::ios_base::Init"* nonnull dereferenceable(1) %ref.tmp11)
          to label %invoke.cont13 unwind label %lpad12

invoke.cont13:                                    ; preds = %invoke.cont9
  %call16 = invoke i8* @_Z12get_dir_nameSsSsSs(%"class.std::basic_string"* nonnull %agg.tmp, %"class.std::basic_string"* nonnull %agg.tmp6, %"class.std::basic_string"* nonnull %agg.tmp10)
          to label %invoke.cont15 unwind label %lpad14

invoke.cont15:                                    ; preds = %invoke.cont13
  %_M_filebuf.i = getelementptr inbounds [1024 x %"class.std::basic_ofstream"], [1024 x %"class.std::basic_ofstream"]* @f3, i64 0, i64 %idxprom4, i32 1
  %call2.i69 = invoke %"class.std::basic_filebuf"* @_ZNSt13basic_filebufIcSt11char_traitsIcEE4openEPKcSt13_Ios_Openmode(%"class.std::basic_filebuf"* nonnull %_M_filebuf.i, i8* %call16, i32 17)
          to label %call2.i.noexc unwind label %lpad14

call2.i.noexc:                                    ; preds = %invoke.cont15
  %tobool.i = icmp eq %"class.std::basic_filebuf"* %call2.i69, null
  %3 = bitcast %"class.std::basic_ofstream"* %arrayidx5 to i8**
  %vtable3.i = load i8*, i8** %3, align 16, !tbaa !6
  %vbase.offset.ptr4.i = getelementptr i8, i8* %vtable3.i, i64 -24
  %4 = bitcast i8* %vbase.offset.ptr4.i to i64*
  %vbase.offset5.i = load i64, i64* %4, align 8
  %5 = bitcast %"class.std::basic_ofstream"* %arrayidx5 to i8*
  %add.ptr6.i = getelementptr inbounds i8, i8* %5, i64 %vbase.offset5.i
  %6 = bitcast i8* %add.ptr6.i to %"class.std::basic_ios"*
  br i1 %tobool.i, label %if.then.i, label %if.else.i

if.then.i:                                        ; preds = %call2.i.noexc
  %_M_streambuf_state.i.i.i = getelementptr inbounds i8, i8* %add.ptr6.i, i64 32
  %7 = bitcast i8* %_M_streambuf_state.i.i.i to i32*
  %8 = load i32, i32* %7, align 8, !tbaa !8
  %or.i.i.i = or i32 %8, 4
  invoke void @_ZNSt9basic_iosIcSt11char_traitsIcEE5clearESt12_Ios_Iostate(%"class.std::basic_ios"* nonnull %6, i32 %or.i.i.i)
          to label %invoke.cont19 unwind label %lpad14

if.else.i:                                        ; preds = %call2.i.noexc
  invoke void @_ZNSt9basic_iosIcSt11char_traitsIcEE5clearESt12_Ios_Iostate(%"class.std::basic_ios"* nonnull %6, i32 0)
          to label %invoke.cont19 unwind label %lpad14

invoke.cont19:                                    ; preds = %if.else.i, %if.then.i
  %_M_p.i.i.i = getelementptr inbounds %"class.std::basic_string", %"class.std::basic_string"* %agg.tmp10, i64 0, i32 0, i32 0
  %9 = load i8*, i8** %_M_p.i.i.i, align 8, !tbaa !17
  %arrayidx.i.i = getelementptr inbounds i8, i8* %9, i64 -24
  %10 = bitcast i8* %arrayidx.i.i to %"struct.std::basic_string<char, std::char_traits<char>, std::allocator<char> >::_Rep"*
  %11 = getelementptr inbounds %"class.std::ios_base::Init", %"class.std::ios_base::Init"* %ref.tmp.i, i64 0, i32 0
  call void @llvm.lifetime.start.p0i8(i64 1, i8* nonnull %11) #3
  %cmp.i.i = icmp eq i8* %arrayidx.i.i, bitcast ([0 x i64]* @_ZNSs4_Rep20_S_empty_rep_storageE to i8*)
  br i1 %cmp.i.i, label %_ZNSsD2Ev.exit, label %if.then.i.i, !prof !22

if.then.i.i:                                      ; preds = %invoke.cont19
  %_M_refcount.i.i = getelementptr inbounds i8, i8* %9, i64 -8
  %12 = bitcast i8* %_M_refcount.i.i to i32*
  br i1 icmp ne (i8* bitcast (i32 (i32*, void (i8*)*)* @__pthread_key_create to i8*), i8* null), label %if.then.i.i.i, label %if.else.i.i.i

if.then.i.i.i:                                    ; preds = %if.then.i.i
  %13 = atomicrmw volatile add i32* %12, i32 -1 acq_rel
  br label %invoke.cont.i.i

if.else.i.i.i:                                    ; preds = %if.then.i.i
  %14 = load i32, i32* %12, align 4, !tbaa !23
  %add.i.i.i.i = add nsw i32 %14, -1
  store i32 %add.i.i.i.i, i32* %12, align 4, !tbaa !23
  br label %invoke.cont.i.i

invoke.cont.i.i:                                  ; preds = %if.else.i.i.i, %if.then.i.i.i
  %retval.0.i.i.i = phi i32 [ %13, %if.then.i.i.i ], [ %14, %if.else.i.i.i ]
  %cmp3.i.i = icmp slt i32 %retval.0.i.i.i, 1
  br i1 %cmp3.i.i, label %if.then4.i.i, label %_ZNSsD2Ev.exit

if.then4.i.i:                                     ; preds = %invoke.cont.i.i
  call void @_ZNSs4_Rep10_M_destroyERKSaIcE(%"struct.std::basic_string<char, std::char_traits<char>, std::allocator<char> >::_Rep"* nonnull %10, %"class.std::ios_base::Init"* nonnull dereferenceable(1) %ref.tmp.i) #3
  br label %_ZNSsD2Ev.exit

_ZNSsD2Ev.exit:                                   ; preds = %if.then4.i.i, %invoke.cont.i.i, %invoke.cont19
  call void @llvm.lifetime.end.p0i8(i64 1, i8* nonnull %11) #3
  call void @llvm.lifetime.end.p0i8(i64 1, i8* nonnull %2) #3
  %_M_p.i.i.i72 = getelementptr inbounds %"class.std::basic_string", %"class.std::basic_string"* %agg.tmp6, i64 0, i32 0, i32 0
  %15 = load i8*, i8** %_M_p.i.i.i72, align 8, !tbaa !17
  %arrayidx.i.i73 = getelementptr inbounds i8, i8* %15, i64 -24
  %16 = bitcast i8* %arrayidx.i.i73 to %"struct.std::basic_string<char, std::char_traits<char>, std::allocator<char> >::_Rep"*
  %17 = getelementptr inbounds %"class.std::ios_base::Init", %"class.std::ios_base::Init"* %ref.tmp.i71, i64 0, i32 0
  call void @llvm.lifetime.start.p0i8(i64 1, i8* nonnull %17) #3
  %cmp.i.i74 = icmp eq i8* %arrayidx.i.i73, bitcast ([0 x i64]* @_ZNSs4_Rep20_S_empty_rep_storageE to i8*)
  br i1 %cmp.i.i74, label %_ZNSsD2Ev.exit84, label %if.then.i.i76, !prof !22

if.then.i.i76:                                    ; preds = %_ZNSsD2Ev.exit
  %_M_refcount.i.i75 = getelementptr inbounds i8, i8* %15, i64 -8
  %18 = bitcast i8* %_M_refcount.i.i75 to i32*
  br i1 icmp ne (i8* bitcast (i32 (i32*, void (i8*)*)* @__pthread_key_create to i8*), i8* null), label %if.then.i.i.i77, label %if.else.i.i.i79

if.then.i.i.i77:                                  ; preds = %if.then.i.i76
  %19 = atomicrmw volatile add i32* %18, i32 -1 acq_rel
  br label %invoke.cont.i.i82

if.else.i.i.i79:                                  ; preds = %if.then.i.i76
  %20 = load i32, i32* %18, align 4, !tbaa !23
  %add.i.i.i.i78 = add nsw i32 %20, -1
  store i32 %add.i.i.i.i78, i32* %18, align 4, !tbaa !23
  br label %invoke.cont.i.i82

invoke.cont.i.i82:                                ; preds = %if.else.i.i.i79, %if.then.i.i.i77
  %retval.0.i.i.i80 = phi i32 [ %19, %if.then.i.i.i77 ], [ %20, %if.else.i.i.i79 ]
  %cmp3.i.i81 = icmp slt i32 %retval.0.i.i.i80, 1
  br i1 %cmp3.i.i81, label %if.then4.i.i83, label %_ZNSsD2Ev.exit84

if.then4.i.i83:                                   ; preds = %invoke.cont.i.i82
  call void @_ZNSs4_Rep10_M_destroyERKSaIcE(%"struct.std::basic_string<char, std::char_traits<char>, std::allocator<char> >::_Rep"* nonnull %16, %"class.std::ios_base::Init"* nonnull dereferenceable(1) %ref.tmp.i71) #3
  br label %_ZNSsD2Ev.exit84

_ZNSsD2Ev.exit84:                                 ; preds = %if.then4.i.i83, %invoke.cont.i.i82, %_ZNSsD2Ev.exit
  call void @llvm.lifetime.end.p0i8(i64 1, i8* nonnull %17) #3
  call void @llvm.lifetime.end.p0i8(i64 1, i8* nonnull %1) #3
  %_M_p.i.i.i86 = getelementptr inbounds %"class.std::basic_string", %"class.std::basic_string"* %agg.tmp, i64 0, i32 0, i32 0
  %21 = load i8*, i8** %_M_p.i.i.i86, align 8, !tbaa !17
  %arrayidx.i.i87 = getelementptr inbounds i8, i8* %21, i64 -24
  %22 = bitcast i8* %arrayidx.i.i87 to %"struct.std::basic_string<char, std::char_traits<char>, std::allocator<char> >::_Rep"*
  %23 = getelementptr inbounds %"class.std::ios_base::Init", %"class.std::ios_base::Init"* %ref.tmp.i85, i64 0, i32 0
  call void @llvm.lifetime.start.p0i8(i64 1, i8* nonnull %23) #3
  %cmp.i.i88 = icmp eq i8* %arrayidx.i.i87, bitcast ([0 x i64]* @_ZNSs4_Rep20_S_empty_rep_storageE to i8*)
  br i1 %cmp.i.i88, label %_ZNSsD2Ev.exit98, label %if.then.i.i90, !prof !22

if.then.i.i90:                                    ; preds = %_ZNSsD2Ev.exit84
  %_M_refcount.i.i89 = getelementptr inbounds i8, i8* %21, i64 -8
  %24 = bitcast i8* %_M_refcount.i.i89 to i32*
  br i1 icmp ne (i8* bitcast (i32 (i32*, void (i8*)*)* @__pthread_key_create to i8*), i8* null), label %if.then.i.i.i91, label %if.else.i.i.i93

if.then.i.i.i91:                                  ; preds = %if.then.i.i90
  %25 = atomicrmw volatile add i32* %24, i32 -1 acq_rel
  br label %invoke.cont.i.i96

if.else.i.i.i93:                                  ; preds = %if.then.i.i90
  %26 = load i32, i32* %24, align 4, !tbaa !23
  %add.i.i.i.i92 = add nsw i32 %26, -1
  store i32 %add.i.i.i.i92, i32* %24, align 4, !tbaa !23
  br label %invoke.cont.i.i96

invoke.cont.i.i96:                                ; preds = %if.else.i.i.i93, %if.then.i.i.i91
  %retval.0.i.i.i94 = phi i32 [ %25, %if.then.i.i.i91 ], [ %26, %if.else.i.i.i93 ]
  %cmp3.i.i95 = icmp slt i32 %retval.0.i.i.i94, 1
  br i1 %cmp3.i.i95, label %if.then4.i.i97, label %_ZNSsD2Ev.exit98

if.then4.i.i97:                                   ; preds = %invoke.cont.i.i96
  call void @_ZNSs4_Rep10_M_destroyERKSaIcE(%"struct.std::basic_string<char, std::char_traits<char>, std::allocator<char> >::_Rep"* nonnull %22, %"class.std::ios_base::Init"* nonnull dereferenceable(1) %ref.tmp.i85) #3
  br label %_ZNSsD2Ev.exit98

_ZNSsD2Ev.exit98:                                 ; preds = %if.then4.i.i97, %invoke.cont.i.i96, %_ZNSsD2Ev.exit84
  call void @llvm.lifetime.end.p0i8(i64 1, i8* nonnull %23) #3
  call void @llvm.lifetime.end.p0i8(i64 1, i8* nonnull %0) #3
  br label %if.end

lpad:                                             ; preds = %if.then
  %27 = landingpad { i8*, i32 }
          cleanup
  %28 = extractvalue { i8*, i32 } %27, 0
  %29 = extractvalue { i8*, i32 } %27, 1
  br label %ehcleanup25

lpad8:                                            ; preds = %invoke.cont
  %30 = landingpad { i8*, i32 }
          cleanup
  %31 = extractvalue { i8*, i32 } %30, 0
  %32 = extractvalue { i8*, i32 } %30, 1
  br label %ehcleanup22

lpad12:                                           ; preds = %invoke.cont9
  %33 = landingpad { i8*, i32 }
          cleanup
  %34 = extractvalue { i8*, i32 } %33, 0
  %35 = extractvalue { i8*, i32 } %33, 1
  br label %ehcleanup

lpad14:                                           ; preds = %if.else.i, %if.then.i, %invoke.cont15, %invoke.cont13
  %36 = landingpad { i8*, i32 }
          cleanup
  %37 = extractvalue { i8*, i32 } %36, 0
  %38 = extractvalue { i8*, i32 } %36, 1
  %_M_p.i.i.i103 = getelementptr inbounds %"class.std::basic_string", %"class.std::basic_string"* %agg.tmp10, i64 0, i32 0, i32 0
  %39 = load i8*, i8** %_M_p.i.i.i103, align 8, !tbaa !17
  %arrayidx.i.i104 = getelementptr inbounds i8, i8* %39, i64 -24
  %40 = bitcast i8* %arrayidx.i.i104 to %"struct.std::basic_string<char, std::char_traits<char>, std::allocator<char> >::_Rep"*
  %41 = getelementptr inbounds %"class.std::ios_base::Init", %"class.std::ios_base::Init"* %ref.tmp.i102, i64 0, i32 0
  call void @llvm.lifetime.start.p0i8(i64 1, i8* nonnull %41) #3
  %cmp.i.i105 = icmp eq i8* %arrayidx.i.i104, bitcast ([0 x i64]* @_ZNSs4_Rep20_S_empty_rep_storageE to i8*)
  br i1 %cmp.i.i105, label %_ZNSsD2Ev.exit115, label %if.then.i.i107, !prof !22

if.then.i.i107:                                   ; preds = %lpad14
  %_M_refcount.i.i106 = getelementptr inbounds i8, i8* %39, i64 -8
  %42 = bitcast i8* %_M_refcount.i.i106 to i32*
  br i1 icmp ne (i8* bitcast (i32 (i32*, void (i8*)*)* @__pthread_key_create to i8*), i8* null), label %if.then.i.i.i108, label %if.else.i.i.i110

if.then.i.i.i108:                                 ; preds = %if.then.i.i107
  %43 = atomicrmw volatile add i32* %42, i32 -1 acq_rel
  br label %invoke.cont.i.i113

if.else.i.i.i110:                                 ; preds = %if.then.i.i107
  %44 = load i32, i32* %42, align 4, !tbaa !23
  %add.i.i.i.i109 = add nsw i32 %44, -1
  store i32 %add.i.i.i.i109, i32* %42, align 4, !tbaa !23
  br label %invoke.cont.i.i113

invoke.cont.i.i113:                               ; preds = %if.else.i.i.i110, %if.then.i.i.i108
  %retval.0.i.i.i111 = phi i32 [ %43, %if.then.i.i.i108 ], [ %44, %if.else.i.i.i110 ]
  %cmp3.i.i112 = icmp slt i32 %retval.0.i.i.i111, 1
  br i1 %cmp3.i.i112, label %if.then4.i.i114, label %_ZNSsD2Ev.exit115

if.then4.i.i114:                                  ; preds = %invoke.cont.i.i113
  call void @_ZNSs4_Rep10_M_destroyERKSaIcE(%"struct.std::basic_string<char, std::char_traits<char>, std::allocator<char> >::_Rep"* nonnull %40, %"class.std::ios_base::Init"* nonnull dereferenceable(1) %ref.tmp.i102) #3
  br label %_ZNSsD2Ev.exit115

_ZNSsD2Ev.exit115:                                ; preds = %if.then4.i.i114, %invoke.cont.i.i113, %lpad14
  call void @llvm.lifetime.end.p0i8(i64 1, i8* nonnull %41) #3
  br label %ehcleanup

ehcleanup:                                        ; preds = %_ZNSsD2Ev.exit115, %lpad12
  %exn.slot.0 = phi i8* [ %37, %_ZNSsD2Ev.exit115 ], [ %34, %lpad12 ]
  %ehselector.slot.0 = phi i32 [ %38, %_ZNSsD2Ev.exit115 ], [ %35, %lpad12 ]
  call void @llvm.lifetime.end.p0i8(i64 1, i8* nonnull %2) #3
  %_M_p.i.i.i117 = getelementptr inbounds %"class.std::basic_string", %"class.std::basic_string"* %agg.tmp6, i64 0, i32 0, i32 0
  %45 = load i8*, i8** %_M_p.i.i.i117, align 8, !tbaa !17
  %arrayidx.i.i118 = getelementptr inbounds i8, i8* %45, i64 -24
  %46 = bitcast i8* %arrayidx.i.i118 to %"struct.std::basic_string<char, std::char_traits<char>, std::allocator<char> >::_Rep"*
  %47 = getelementptr inbounds %"class.std::ios_base::Init", %"class.std::ios_base::Init"* %ref.tmp.i116, i64 0, i32 0
  call void @llvm.lifetime.start.p0i8(i64 1, i8* nonnull %47) #3
  %cmp.i.i119 = icmp eq i8* %arrayidx.i.i118, bitcast ([0 x i64]* @_ZNSs4_Rep20_S_empty_rep_storageE to i8*)
  br i1 %cmp.i.i119, label %_ZNSsD2Ev.exit129, label %if.then.i.i121, !prof !22

if.then.i.i121:                                   ; preds = %ehcleanup
  %_M_refcount.i.i120 = getelementptr inbounds i8, i8* %45, i64 -8
  %48 = bitcast i8* %_M_refcount.i.i120 to i32*
  br i1 icmp ne (i8* bitcast (i32 (i32*, void (i8*)*)* @__pthread_key_create to i8*), i8* null), label %if.then.i.i.i122, label %if.else.i.i.i124

if.then.i.i.i122:                                 ; preds = %if.then.i.i121
  %49 = atomicrmw volatile add i32* %48, i32 -1 acq_rel
  br label %invoke.cont.i.i127

if.else.i.i.i124:                                 ; preds = %if.then.i.i121
  %50 = load i32, i32* %48, align 4, !tbaa !23
  %add.i.i.i.i123 = add nsw i32 %50, -1
  store i32 %add.i.i.i.i123, i32* %48, align 4, !tbaa !23
  br label %invoke.cont.i.i127

invoke.cont.i.i127:                               ; preds = %if.else.i.i.i124, %if.then.i.i.i122
  %retval.0.i.i.i125 = phi i32 [ %49, %if.then.i.i.i122 ], [ %50, %if.else.i.i.i124 ]
  %cmp3.i.i126 = icmp slt i32 %retval.0.i.i.i125, 1
  br i1 %cmp3.i.i126, label %if.then4.i.i128, label %_ZNSsD2Ev.exit129

if.then4.i.i128:                                  ; preds = %invoke.cont.i.i127
  call void @_ZNSs4_Rep10_M_destroyERKSaIcE(%"struct.std::basic_string<char, std::char_traits<char>, std::allocator<char> >::_Rep"* nonnull %46, %"class.std::ios_base::Init"* nonnull dereferenceable(1) %ref.tmp.i116) #3
  br label %_ZNSsD2Ev.exit129

_ZNSsD2Ev.exit129:                                ; preds = %if.then4.i.i128, %invoke.cont.i.i127, %ehcleanup
  call void @llvm.lifetime.end.p0i8(i64 1, i8* nonnull %47) #3
  br label %ehcleanup22

ehcleanup22:                                      ; preds = %_ZNSsD2Ev.exit129, %lpad8
  %exn.slot.1 = phi i8* [ %exn.slot.0, %_ZNSsD2Ev.exit129 ], [ %31, %lpad8 ]
  %ehselector.slot.1 = phi i32 [ %ehselector.slot.0, %_ZNSsD2Ev.exit129 ], [ %32, %lpad8 ]
  call void @llvm.lifetime.end.p0i8(i64 1, i8* nonnull %1) #3
  %_M_p.i.i.i134 = getelementptr inbounds %"class.std::basic_string", %"class.std::basic_string"* %agg.tmp, i64 0, i32 0, i32 0
  %51 = load i8*, i8** %_M_p.i.i.i134, align 8, !tbaa !17
  %arrayidx.i.i135 = getelementptr inbounds i8, i8* %51, i64 -24
  %52 = bitcast i8* %arrayidx.i.i135 to %"struct.std::basic_string<char, std::char_traits<char>, std::allocator<char> >::_Rep"*
  %53 = getelementptr inbounds %"class.std::ios_base::Init", %"class.std::ios_base::Init"* %ref.tmp.i133, i64 0, i32 0
  call void @llvm.lifetime.start.p0i8(i64 1, i8* nonnull %53) #3
  %cmp.i.i136 = icmp eq i8* %arrayidx.i.i135, bitcast ([0 x i64]* @_ZNSs4_Rep20_S_empty_rep_storageE to i8*)
  br i1 %cmp.i.i136, label %_ZNSsD2Ev.exit146, label %if.then.i.i138, !prof !22

if.then.i.i138:                                   ; preds = %ehcleanup22
  %_M_refcount.i.i137 = getelementptr inbounds i8, i8* %51, i64 -8
  %54 = bitcast i8* %_M_refcount.i.i137 to i32*
  br i1 icmp ne (i8* bitcast (i32 (i32*, void (i8*)*)* @__pthread_key_create to i8*), i8* null), label %if.then.i.i.i139, label %if.else.i.i.i141

if.then.i.i.i139:                                 ; preds = %if.then.i.i138
  %55 = atomicrmw volatile add i32* %54, i32 -1 acq_rel
  br label %invoke.cont.i.i144

if.else.i.i.i141:                                 ; preds = %if.then.i.i138
  %56 = load i32, i32* %54, align 4, !tbaa !23
  %add.i.i.i.i140 = add nsw i32 %56, -1
  store i32 %add.i.i.i.i140, i32* %54, align 4, !tbaa !23
  br label %invoke.cont.i.i144

invoke.cont.i.i144:                               ; preds = %if.else.i.i.i141, %if.then.i.i.i139
  %retval.0.i.i.i142 = phi i32 [ %55, %if.then.i.i.i139 ], [ %56, %if.else.i.i.i141 ]
  %cmp3.i.i143 = icmp slt i32 %retval.0.i.i.i142, 1
  br i1 %cmp3.i.i143, label %if.then4.i.i145, label %_ZNSsD2Ev.exit146

if.then4.i.i145:                                  ; preds = %invoke.cont.i.i144
  call void @_ZNSs4_Rep10_M_destroyERKSaIcE(%"struct.std::basic_string<char, std::char_traits<char>, std::allocator<char> >::_Rep"* nonnull %52, %"class.std::ios_base::Init"* nonnull dereferenceable(1) %ref.tmp.i133) #3
  br label %_ZNSsD2Ev.exit146

_ZNSsD2Ev.exit146:                                ; preds = %if.then4.i.i145, %invoke.cont.i.i144, %ehcleanup22
  call void @llvm.lifetime.end.p0i8(i64 1, i8* nonnull %53) #3
  br label %ehcleanup25

ehcleanup25:                                      ; preds = %_ZNSsD2Ev.exit146, %lpad
  %exn.slot.2 = phi i8* [ %exn.slot.1, %_ZNSsD2Ev.exit146 ], [ %28, %lpad ]
  %ehselector.slot.2 = phi i32 [ %ehselector.slot.1, %_ZNSsD2Ev.exit146 ], [ %29, %lpad ]
  call void @llvm.lifetime.end.p0i8(i64 1, i8* nonnull %0) #3
  %lpad.val = insertvalue { i8*, i32 } undef, i8* %exn.slot.2, 0
  %lpad.val65 = insertvalue { i8*, i32 } %lpad.val, i32 %ehselector.slot.2, 1
  resume { i8*, i32 } %lpad.val65

if.end:                                           ; preds = %_ZNSsD2Ev.exit98, %entry
  %call27 = call i32 @omp_get_thread_num() #3
  %idxprom28 = sext i32 %call27 to i64
  %arrayidx29 = getelementptr inbounds [1024 x %"class.std::basic_ofstream"], [1024 x %"class.std::basic_ofstream"]* @f3, i64 0, i64 %idxprom28
  %57 = bitcast %"class.std::basic_ofstream"* %arrayidx29 to %"class.std::basic_ostream"*
  %tobool.i147 = icmp eq i8* %acc_kernel_name, null
  br i1 %tobool.i147, label %if.then.i150, label %if.else.i153

if.then.i150:                                     ; preds = %if.end
  %58 = bitcast %"class.std::basic_ofstream"* %arrayidx29 to i8**
  %vtable.i = load i8*, i8** %58, align 16, !tbaa !6
  %vbase.offset.ptr.i = getelementptr i8, i8* %vtable.i, i64 -24
  %59 = bitcast i8* %vbase.offset.ptr.i to i64*
  %vbase.offset.i = load i64, i64* %59, align 8
  %60 = bitcast %"class.std::basic_ofstream"* %arrayidx29 to i8*
  %add.ptr.i = getelementptr inbounds i8, i8* %60, i64 %vbase.offset.i
  %61 = bitcast i8* %add.ptr.i to %"class.std::basic_ios"*
  %_M_streambuf_state.i.i.i148 = getelementptr inbounds i8, i8* %add.ptr.i, i64 32
  %62 = bitcast i8* %_M_streambuf_state.i.i.i148 to i32*
  %63 = load i32, i32* %62, align 8, !tbaa !8
  %or.i.i.i149 = or i32 %63, 1
  call void @_ZNSt9basic_iosIcSt11char_traitsIcEE5clearESt12_Ios_Iostate(%"class.std::basic_ios"* nonnull %61, i32 %or.i.i.i149)
  br label %_ZStlsISt11char_traitsIcEERSt13basic_ostreamIcT_ES5_PKc.exit

if.else.i153:                                     ; preds = %if.end
  %call.i.i151 = call i64 @strlen(i8* nonnull %acc_kernel_name) #3
  %call1.i152 = call dereferenceable(272) %"class.std::basic_ostream"* @_ZSt16__ostream_insertIcSt11char_traitsIcEERSt13basic_ostreamIT_T0_ES6_PKS3_l(%"class.std::basic_ostream"* nonnull dereferenceable(272) %57, i8* nonnull %acc_kernel_name, i64 %call.i.i151)
  br label %_ZStlsISt11char_traitsIcEERSt13basic_ostreamIcT_ES5_PKc.exit

_ZStlsISt11char_traitsIcEERSt13basic_ostreamIcT_ES5_PKc.exit: ; preds = %if.else.i153, %if.then.i150
  %call1.i155 = call dereferenceable(272) %"class.std::basic_ostream"* @_ZSt16__ostream_insertIcSt11char_traitsIcEERSt13basic_ostreamIT_T0_ES6_PKS3_l(%"class.std::basic_ostream"* nonnull dereferenceable(272) %57, i8* nonnull getelementptr inbounds ([2 x i8], [2 x i8]* @.str.9, i64 0, i64 0), i64 1)
  %tobool.i157 = icmp eq i8* %node_id, null
  br i1 %tobool.i157, label %if.then.i164, label %if.else.i167

if.then.i164:                                     ; preds = %_ZStlsISt11char_traitsIcEERSt13basic_ostreamIcT_ES5_PKc.exit
  %64 = bitcast %"class.std::basic_ofstream"* %arrayidx29 to i8**
  %vtable.i158 = load i8*, i8** %64, align 16, !tbaa !6
  %vbase.offset.ptr.i159 = getelementptr i8, i8* %vtable.i158, i64 -24
  %65 = bitcast i8* %vbase.offset.ptr.i159 to i64*
  %vbase.offset.i160 = load i64, i64* %65, align 8
  %66 = bitcast %"class.std::basic_ofstream"* %arrayidx29 to i8*
  %add.ptr.i161 = getelementptr inbounds i8, i8* %66, i64 %vbase.offset.i160
  %67 = bitcast i8* %add.ptr.i161 to %"class.std::basic_ios"*
  %_M_streambuf_state.i.i.i162 = getelementptr inbounds i8, i8* %add.ptr.i161, i64 32
  %68 = bitcast i8* %_M_streambuf_state.i.i.i162 to i32*
  %69 = load i32, i32* %68, align 8, !tbaa !8
  %or.i.i.i163 = or i32 %69, 1
  call void @_ZNSt9basic_iosIcSt11char_traitsIcEE5clearESt12_Ios_Iostate(%"class.std::basic_ios"* nonnull %67, i32 %or.i.i.i163)
  br label %_ZStlsISt11char_traitsIcEERSt13basic_ostreamIcT_ES5_PKc.exit168

if.else.i167:                                     ; preds = %_ZStlsISt11char_traitsIcEERSt13basic_ostreamIcT_ES5_PKc.exit
  %call.i.i165 = call i64 @strlen(i8* nonnull %node_id) #3
  %call1.i166 = call dereferenceable(272) %"class.std::basic_ostream"* @_ZSt16__ostream_insertIcSt11char_traitsIcEERSt13basic_ostreamIT_T0_ES6_PKS3_l(%"class.std::basic_ostream"* nonnull dereferenceable(272) %57, i8* nonnull %node_id, i64 %call.i.i165)
  br label %_ZStlsISt11char_traitsIcEERSt13basic_ostreamIcT_ES5_PKc.exit168

_ZStlsISt11char_traitsIcEERSt13basic_ostreamIcT_ES5_PKc.exit168: ; preds = %if.else.i167, %if.then.i164
  %call1.i170 = call dereferenceable(272) %"class.std::basic_ostream"* @_ZSt16__ostream_insertIcSt11char_traitsIcEERSt13basic_ostreamIT_T0_ES6_PKS3_l(%"class.std::basic_ostream"* nonnull dereferenceable(272) %57, i8* nonnull getelementptr inbounds ([2 x i8], [2 x i8]* @.str.9, i64 0, i64 0), i64 1)
  %call34 = call dereferenceable(272) %"class.std::basic_ostream"* @_ZNSolsEi(%"class.std::basic_ostream"* nonnull %57, i32 %batch)
  %call1.i173 = call dereferenceable(272) %"class.std::basic_ostream"* @_ZSt16__ostream_insertIcSt11char_traitsIcEERSt13basic_ostreamIT_T0_ES6_PKS3_l(%"class.std::basic_ostream"* nonnull dereferenceable(272) %call34, i8* nonnull getelementptr inbounds ([2 x i8], [2 x i8]* @.str.9, i64 0, i64 0), i64 1)
  %call36 = call dereferenceable(272) %"class.std::basic_ostream"* @_ZNSolsEi(%"class.std::basic_ostream"* nonnull %call34, i32 %in_channels)
  %call1.i176 = call dereferenceable(272) %"class.std::basic_ostream"* @_ZSt16__ostream_insertIcSt11char_traitsIcEERSt13basic_ostreamIT_T0_ES6_PKS3_l(%"class.std::basic_ostream"* nonnull dereferenceable(272) %call36, i8* nonnull getelementptr inbounds ([2 x i8], [2 x i8]* @.str.9, i64 0, i64 0), i64 1)
  %call38 = call dereferenceable(272) %"class.std::basic_ostream"* @_ZNSolsEi(%"class.std::basic_ostream"* nonnull %call36, i32 %in_height)
  %call1.i179 = call dereferenceable(272) %"class.std::basic_ostream"* @_ZSt16__ostream_insertIcSt11char_traitsIcEERSt13basic_ostreamIT_T0_ES6_PKS3_l(%"class.std::basic_ostream"* nonnull dereferenceable(272) %call38, i8* nonnull getelementptr inbounds ([2 x i8], [2 x i8]* @.str.9, i64 0, i64 0), i64 1)
  %call40 = call dereferenceable(272) %"class.std::basic_ostream"* @_ZNSolsEi(%"class.std::basic_ostream"* nonnull %call38, i32 %in_width)
  %call1.i182 = call dereferenceable(272) %"class.std::basic_ostream"* @_ZSt16__ostream_insertIcSt11char_traitsIcEERSt13basic_ostreamIT_T0_ES6_PKS3_l(%"class.std::basic_ostream"* nonnull dereferenceable(272) %call40, i8* nonnull getelementptr inbounds ([2 x i8], [2 x i8]* @.str.9, i64 0, i64 0), i64 1)
  %call42 = call dereferenceable(272) %"class.std::basic_ostream"* @_ZNSolsEi(%"class.std::basic_ostream"* nonnull %call40, i32 %out_channels)
  %call1.i185 = call dereferenceable(272) %"class.std::basic_ostream"* @_ZSt16__ostream_insertIcSt11char_traitsIcEERSt13basic_ostreamIT_T0_ES6_PKS3_l(%"class.std::basic_ostream"* nonnull dereferenceable(272) %call42, i8* nonnull getelementptr inbounds ([2 x i8], [2 x i8]* @.str.9, i64 0, i64 0), i64 1)
  %call44 = call dereferenceable(272) %"class.std::basic_ostream"* @_ZNSolsEi(%"class.std::basic_ostream"* nonnull %call42, i32 %filter_height)
  %call1.i188 = call dereferenceable(272) %"class.std::basic_ostream"* @_ZSt16__ostream_insertIcSt11char_traitsIcEERSt13basic_ostreamIT_T0_ES6_PKS3_l(%"class.std::basic_ostream"* nonnull dereferenceable(272) %call44, i8* nonnull getelementptr inbounds ([2 x i8], [2 x i8]* @.str.9, i64 0, i64 0), i64 1)
  %call46 = call dereferenceable(272) %"class.std::basic_ostream"* @_ZNSolsEi(%"class.std::basic_ostream"* nonnull %call44, i32 %filter_width)
  %call1.i191 = call dereferenceable(272) %"class.std::basic_ostream"* @_ZSt16__ostream_insertIcSt11char_traitsIcEERSt13basic_ostreamIT_T0_ES6_PKS3_l(%"class.std::basic_ostream"* nonnull dereferenceable(272) %call46, i8* nonnull getelementptr inbounds ([2 x i8], [2 x i8]* @.str.9, i64 0, i64 0), i64 1)
  %call.i = call dereferenceable(272) %"class.std::basic_ostream"* @_ZNSo9_M_insertIbEERSoT_(%"class.std::basic_ostream"* nonnull %call46, i1 zeroext %zero_pad)
  %call1.i194 = call dereferenceable(272) %"class.std::basic_ostream"* @_ZSt16__ostream_insertIcSt11char_traitsIcEERSt13basic_ostreamIT_T0_ES6_PKS3_l(%"class.std::basic_ostream"* nonnull dereferenceable(272) %call.i, i8* nonnull getelementptr inbounds ([2 x i8], [2 x i8]* @.str.9, i64 0, i64 0), i64 1)
  %call50 = call dereferenceable(272) %"class.std::basic_ostream"* @_ZNSolsEi(%"class.std::basic_ostream"* nonnull %call.i, i32 %vert_conv_stride)
  %call1.i197 = call dereferenceable(272) %"class.std::basic_ostream"* @_ZSt16__ostream_insertIcSt11char_traitsIcEERSt13basic_ostreamIT_T0_ES6_PKS3_l(%"class.std::basic_ostream"* nonnull dereferenceable(272) %call50, i8* nonnull getelementptr inbounds ([2 x i8], [2 x i8]* @.str.9, i64 0, i64 0), i64 1)
  %call52 = call dereferenceable(272) %"class.std::basic_ostream"* @_ZNSolsEi(%"class.std::basic_ostream"* nonnull %call50, i32 %horiz_conv_stride)
  %call1.i200 = call dereferenceable(272) %"class.std::basic_ostream"* @_ZSt16__ostream_insertIcSt11char_traitsIcEERSt13basic_ostreamIT_T0_ES6_PKS3_l(%"class.std::basic_ostream"* nonnull dereferenceable(272) %call52, i8* nonnull getelementptr inbounds ([2 x i8], [2 x i8]* @.str.9, i64 0, i64 0), i64 1)
  %call.i202 = call dereferenceable(272) %"class.std::basic_ostream"* @_ZNSo9_M_insertIbEERSoT_(%"class.std::basic_ostream"* nonnull %call52, i1 zeroext %pooling)
  %call1.i204 = call dereferenceable(272) %"class.std::basic_ostream"* @_ZSt16__ostream_insertIcSt11char_traitsIcEERSt13basic_ostreamIT_T0_ES6_PKS3_l(%"class.std::basic_ostream"* nonnull dereferenceable(272) %call.i202, i8* nonnull getelementptr inbounds ([2 x i8], [2 x i8]* @.str.9, i64 0, i64 0), i64 1)
  %call57 = call dereferenceable(272) %"class.std::basic_ostream"* @_ZNSolsEi(%"class.std::basic_ostream"* nonnull %call.i202, i32 %pool_height)
  %call1.i131 = call dereferenceable(272) %"class.std::basic_ostream"* @_ZSt16__ostream_insertIcSt11char_traitsIcEERSt13basic_ostreamIT_T0_ES6_PKS3_l(%"class.std::basic_ostream"* nonnull dereferenceable(272) %call57, i8* nonnull getelementptr inbounds ([2 x i8], [2 x i8]* @.str.9, i64 0, i64 0), i64 1)
  %call59 = call dereferenceable(272) %"class.std::basic_ostream"* @_ZNSolsEi(%"class.std::basic_ostream"* nonnull %call57, i32 %pool_width)
  %call1.i100 = call dereferenceable(272) %"class.std::basic_ostream"* @_ZSt16__ostream_insertIcSt11char_traitsIcEERSt13basic_ostreamIT_T0_ES6_PKS3_l(%"class.std::basic_ostream"* nonnull dereferenceable(272) %call59, i8* nonnull getelementptr inbounds ([2 x i8], [2 x i8]* @.str.9, i64 0, i64 0), i64 1)
  %call61 = call dereferenceable(272) %"class.std::basic_ostream"* @_ZNSolsEi(%"class.std::basic_ostream"* nonnull %call59, i32 %vertical_pool_stride)
  %call1.i68 = call dereferenceable(272) %"class.std::basic_ostream"* @_ZSt16__ostream_insertIcSt11char_traitsIcEERSt13basic_ostreamIT_T0_ES6_PKS3_l(%"class.std::basic_ostream"* nonnull dereferenceable(272) %call61, i8* nonnull getelementptr inbounds ([2 x i8], [2 x i8]* @.str.9, i64 0, i64 0), i64 1)
  %call63 = call dereferenceable(272) %"class.std::basic_ostream"* @_ZNSolsEi(%"class.std::basic_ostream"* nonnull %call61, i32 %horizontal_pool_stride)
  %call1.i = call dereferenceable(272) %"class.std::basic_ostream"* @_ZSt16__ostream_insertIcSt11char_traitsIcEERSt13basic_ostreamIT_T0_ES6_PKS3_l(%"class.std::basic_ostream"* nonnull dereferenceable(272) %call63, i8* nonnull getelementptr inbounds ([2 x i8], [2 x i8]* @.str.1, i64 0, i64 0), i64 1)
  ret void
}

declare dso_local dereferenceable(272) %"class.std::basic_ostream"* @_ZNSo9_M_insertIbEERSoT_(%"class.std::basic_ostream"*, i1 zeroext) local_unnamed_addr #1

; Function Attrs: noinline uwtable
define dso_local void @print_dense_layer(i8* %acc_kernel_name, i8* %kernel_type, i8* %run_dir, i8* %node_id, i32 %batch, i32 %in_channels, i32 %out_channels) #6 personality i8* bitcast (i32 (...)* @__gxx_personality_v0 to i8*) {
entry:
  %ref.tmp.i107 = alloca %"class.std::ios_base::Init", align 1
  %ref.tmp.i90 = alloca %"class.std::ios_base::Init", align 1
  %ref.tmp.i76 = alloca %"class.std::ios_base::Init", align 1
  %ref.tmp.i59 = alloca %"class.std::ios_base::Init", align 1
  %ref.tmp.i45 = alloca %"class.std::ios_base::Init", align 1
  %ref.tmp.i = alloca %"class.std::ios_base::Init", align 1
  %agg.tmp = alloca %"class.std::basic_string", align 8
  %ref.tmp = alloca %"class.std::ios_base::Init", align 1
  %agg.tmp5 = alloca %"class.std::basic_string", align 8
  %ref.tmp6 = alloca %"class.std::ios_base::Init", align 1
  %agg.tmp9 = alloca %"class.std::basic_string", align 8
  %ref.tmp10 = alloca %"class.std::ios_base::Init", align 1
  %call = tail call i32 @omp_get_thread_num() #3
  %idxprom = sext i32 %call to i64
